Archive member included to satisfy reference by file (symbol)

c:/program files/microchip/xc32/v4.20/bin/bin/../../lib/gcc/pic32c/8.3.1/../../../../pic32c/lib/thumb/v7e-m+dp/hard\libpic32c.a(data_init_wrapper.o)
                              build/sam_e70_xult/production/_ext/1728594169/startup_xc32.o (__pic32c_data_initialization)
c:/program files/microchip/xc32/v4.20/bin/bin/../../lib/gcc/pic32c/8.3.1/../../../../pic32c/lib/thumb/v7e-m+dp/hard\libpic32c.a(data_init_0_1.o)
                              c:/program files/microchip/xc32/v4.20/bin/bin/../../lib/gcc/pic32c/8.3.1/../../../../pic32c/lib/thumb/v7e-m+dp/hard\libpic32c.a(data_init_wrapper.o) (__pic32c_data_initialization_impl)
c:/program files/microchip/xc32/v4.20/bin/bin/../../lib/gcc/pic32c/8.3.1/../../../../pic32c/lib/thumb/v7e-m+dp/hard\libc-musl.a(__libc_start_main.o)
                              build/sam_e70_xult/production/_ext/1728594169/startup_xc32.o (__libc_init_array)
c:/program files/microchip/xc32/v4.20/bin/bin/../../lib/gcc/pic32c/8.3.1/../../../../pic32c/lib/thumb/v7e-m+dp/hard\libc-musl.a(libc.o)
                              c:/program files/microchip/xc32/v4.20/bin/bin/../../lib/gcc/pic32c/8.3.1/../../../../pic32c/lib/thumb/v7e-m+dp/hard\libc-musl.a(__libc_start_main.o) (__progname_full)
c:/program files/microchip/xc32/v4.20/bin/bin/../../lib/gcc/pic32c/8.3.1/../../../../pic32c/lib/thumb/v7e-m+dp/hard\libc-musl.a(vsnprintf.o)
                              build/sam_e70_xult/production/_ext/1953779166/sys_console.o (vsnprintf)
c:/program files/microchip/xc32/v4.20/bin/bin/../../lib/gcc/pic32c/8.3.1/../../../../pic32c/lib/thumb/v7e-m+dp/hard\libc-musl.a(memcpy.o)
                              build/sam_e70_xult/production/_ext/1055499099/plib_efc.o (memcpy)
c:/program files/microchip/xc32/v4.20/bin/bin/../../lib/gcc/pic32c/8.3.1/../../../../pic32c/lib/thumb/v7e-m+dp/hard\libc-musl.a(memset.o)
                              build/sam_e70_xult/production/_ext/1639501792/plib_mcan0.o (memset)
c:/program files/microchip/xc32/v4.20/bin/bin/../../lib/gcc/pic32c/8.3.1/../../../../pic32c/lib/thumb/v7e-m+dp/hard\libc-musl.a(strlen.o)
                              build/sam_e70_xult/production/_ext/1953779166/sys_console.o (strlen)
c:/program files/microchip/xc32/v4.20/bin/bin/../../lib/gcc/pic32c/8.3.1/../../../../pic32c/lib/thumb/v7e-m+dp/hard\libc-musl.a(__environ.o)
                              c:/program files/microchip/xc32/v4.20/bin/bin/../../lib/gcc/pic32c/8.3.1/../../../../pic32c/lib/thumb/v7e-m+dp/hard\libc-musl.a(__libc_start_main.o) (__environ)
c:/program files/microchip/xc32/v4.20/bin/bin/../../lib/gcc/pic32c/8.3.1/../../../../pic32c/lib/thumb/v7e-m+dp/hard\libc-musl.a(__errno_location.o)
                              c:/program files/microchip/xc32/v4.20/bin/bin/../../lib/gcc/pic32c/8.3.1/../../../../pic32c/lib/thumb/v7e-m+dp/hard\libc-musl.a(vsnprintf.o) (__errno_val)
c:/program files/microchip/xc32/v4.20/bin/bin/../../lib/gcc/pic32c/8.3.1/../../../../pic32c/lib/thumb/v7e-m+dp/hard\libc-musl.a(vfprintf.o)
                              c:/program files/microchip/xc32/v4.20/bin/bin/../../lib/gcc/pic32c/8.3.1/../../../../pic32c/lib/thumb/v7e-m+dp/hard\libc-musl.a(vsnprintf.o) (vfprintf)
c:/program files/microchip/xc32/v4.20/bin/bin/../../lib/gcc/pic32c/8.3.1/../../../../pic32c/lib/thumb/v7e-m+dp/hard\libc-musl.a(__io_fmt_needed.o)
                              c:/program files/microchip/xc32/v4.20/bin/bin/../../lib/gcc/pic32c/8.3.1/../../../../pic32c/lib/thumb/v7e-m+dp/hard\libc-musl.a(vfprintf.o) (__io_fmt_needed)
c:/program files/microchip/xc32/v4.20/bin/bin/../../lib/gcc/pic32c/8.3.1/../../../../pic32c/lib/thumb/v7e-m+dp/hard\libc-musl.a(__pop_float.o)
                              c:/program files/microchip/xc32/v4.20/bin/bin/../../lib/gcc/pic32c/8.3.1/../../../../pic32c/lib/thumb/v7e-m+dp/hard\libc-musl.a(__io_fmt_needed.o) (__pop_float_needed)
c:/program files/microchip/xc32/v4.20/bin/bin/../../lib/gcc/pic32c/8.3.1/../../../../pic32c/lib/thumb/v7e-m+dp/hard\libc-musl.a(__pop_int.o)
                              c:/program files/microchip/xc32/v4.20/bin/bin/../../lib/gcc/pic32c/8.3.1/../../../../pic32c/lib/thumb/v7e-m+dp/hard\libc-musl.a(__io_fmt_needed.o) (__pop_int_needed)
c:/program files/microchip/xc32/v4.20/bin/bin/../../lib/gcc/pic32c/8.3.1/../../../../pic32c/lib/thumb/v7e-m+dp/hard\libc-musl.a(__pop_ptr.o)
                              c:/program files/microchip/xc32/v4.20/bin/bin/../../lib/gcc/pic32c/8.3.1/../../../../pic32c/lib/thumb/v7e-m+dp/hard\libc-musl.a(__io_fmt_needed.o) (__pop_ptr_needed)
c:/program files/microchip/xc32/v4.20/bin/bin/../../lib/gcc/pic32c/8.3.1/../../../../pic32c/lib/thumb/v7e-m+dp/hard\libc-musl.a(__printf_core.o)
                              c:/program files/microchip/xc32/v4.20/bin/bin/../../lib/gcc/pic32c/8.3.1/../../../../pic32c/lib/thumb/v7e-m+dp/hard\libc-musl.a(vfprintf.o) (__printf_core)
c:/program files/microchip/xc32/v4.20/bin/bin/../../lib/gcc/pic32c/8.3.1/../../../../pic32c/lib/thumb/v7e-m+dp/hard\libc-musl.a(atoi.o)
                              c:/program files/microchip/xc32/v4.20/bin/bin/../../lib/gcc/pic32c/8.3.1/../../../../pic32c/lib/thumb/v7e-m+dp/hard\libc-musl.a(__printf_core.o) (atoi)
c:/program files/microchip/xc32/v4.20/bin/bin/../../lib/gcc/pic32c/8.3.1/../../../../pic32c/lib/thumb/v7e-m+dp/hard\libc-musl.a(tolower.o)
                              c:/program files/microchip/xc32/v4.20/bin/bin/../../lib/gcc/pic32c/8.3.1/../../../../pic32c/lib/thumb/v7e-m+dp/hard\libc-musl.a(__printf_core.o) (tolower)
c:/program files/microchip/xc32/v4.20/bin/bin/../../lib/gcc/pic32c/8.3.1/../../../../pic32c/lib/thumb/v7e-m+dp/hard\libc-musl.a(__fmt_a.o)
                              c:/program files/microchip/xc32/v4.20/bin/bin/../../lib/gcc/pic32c/8.3.1/../../../../pic32c/lib/thumb/v7e-m+dp/hard\libc-musl.a(__io_fmt_needed.o) (__fmt_a_needed)
c:/program files/microchip/xc32/v4.20/bin/bin/../../lib/gcc/pic32c/8.3.1/../../../../pic32c/lib/thumb/v7e-m+dp/hard\libc-musl.a(__fmt_d.o)
                              c:/program files/microchip/xc32/v4.20/bin/bin/../../lib/gcc/pic32c/8.3.1/../../../../pic32c/lib/thumb/v7e-m+dp/hard\libc-musl.a(__io_fmt_needed.o) (__fmt_d_needed)
c:/program files/microchip/xc32/v4.20/bin/bin/../../lib/gcc/pic32c/8.3.1/../../../../pic32c/lib/thumb/v7e-m+dp/hard\libc-musl.a(__fmt_fp.o)
                              c:/program files/microchip/xc32/v4.20/bin/bin/../../lib/gcc/pic32c/8.3.1/../../../../pic32c/lib/thumb/v7e-m+dp/hard\libc-musl.a(__io_fmt_needed.o) (__fmt_f_needed)
c:/program files/microchip/xc32/v4.20/bin/bin/../../lib/gcc/pic32c/8.3.1/../../../../pic32c/lib/thumb/v7e-m+dp/hard\libc-musl.a(__fmt_o.o)
                              c:/program files/microchip/xc32/v4.20/bin/bin/../../lib/gcc/pic32c/8.3.1/../../../../pic32c/lib/thumb/v7e-m+dp/hard\libc-musl.a(__io_fmt_needed.o) (__fmt_o_needed)
c:/program files/microchip/xc32/v4.20/bin/bin/../../lib/gcc/pic32c/8.3.1/../../../../pic32c/lib/thumb/v7e-m+dp/hard\libc-musl.a(__fmt_s.o)
                              c:/program files/microchip/xc32/v4.20/bin/bin/../../lib/gcc/pic32c/8.3.1/../../../../pic32c/lib/thumb/v7e-m+dp/hard\libc-musl.a(__io_fmt_needed.o) (__fmt_s_needed)
c:/program files/microchip/xc32/v4.20/bin/bin/../../lib/gcc/pic32c/8.3.1/../../../../pic32c/lib/thumb/v7e-m+dp/hard\libc-musl.a(__fmt_u.o)
                              c:/program files/microchip/xc32/v4.20/bin/bin/../../lib/gcc/pic32c/8.3.1/../../../../pic32c/lib/thumb/v7e-m+dp/hard\libc-musl.a(__fmt_d.o) (__cvt_u)
c:/program files/microchip/xc32/v4.20/bin/bin/../../lib/gcc/pic32c/8.3.1/../../../../pic32c/lib/thumb/v7e-m+dp/hard\libc-musl.a(__fmt_x.o)
                              c:/program files/microchip/xc32/v4.20/bin/bin/../../lib/gcc/pic32c/8.3.1/../../../../pic32c/lib/thumb/v7e-m+dp/hard\libc-musl.a(__io_fmt_needed.o) (__fmt_x_needed)
c:/program files/microchip/xc32/v4.20/bin/bin/../../lib/gcc/pic32c/8.3.1/../../../../pic32c/lib/thumb/v7e-m+dp/hard\libc-musl.a(strcpy.o)
                              c:/program files/microchip/xc32/v4.20/bin/bin/../../lib/gcc/pic32c/8.3.1/../../../../pic32c/lib/thumb/v7e-m+dp/hard\libc-musl.a(__fmt_a.o) (strcpy)
c:/program files/microchip/xc32/v4.20/bin/bin/../../lib/gcc/pic32c/8.3.1/../../../../pic32c/lib/thumb/v7e-m+dp/hard\libc-musl.a(toupper.o)
                              c:/program files/microchip/xc32/v4.20/bin/bin/../../lib/gcc/pic32c/8.3.1/../../../../pic32c/lib/thumb/v7e-m+dp/hard\libc-musl.a(__fmt_a.o) (toupper)
c:/program files/microchip/xc32/v4.20/bin/bin/../../lib/gcc/pic32c/8.3.1/../../../../pic32c/lib/thumb/v7e-m+dp/hard\libc-musl.a(stpcpy.o)
                              c:/program files/microchip/xc32/v4.20/bin/bin/../../lib/gcc/pic32c/8.3.1/../../../../pic32c/lib/thumb/v7e-m+dp/hard\libc-musl.a(strcpy.o) (__stpcpy)
c:/program files/microchip/xc32/v4.20/bin/bin/../../lib/gcc/pic32c/8.3.1/../../../../pic32c/lib/thumb/v7e-m+dp/hard\libm-emfloat.a(floor.o)
                              c:/program files/microchip/xc32/v4.20/bin/bin/../../lib/gcc/pic32c/8.3.1/../../../../pic32c/lib/thumb/v7e-m+dp/hard\libc-musl.a(__fmt_a.o) (floor)
c:/program files/microchip/xc32/v4.20/bin/bin/../../lib/gcc/pic32c/8.3.1/thumb/v7e-m+dp/hard\libgcc.a(_aeabi_uldivmod.o)
                              c:/program files/microchip/xc32/v4.20/bin/bin/../../lib/gcc/pic32c/8.3.1/../../../../pic32c/lib/thumb/v7e-m+dp/hard\libc-musl.a(__fmt_u.o) (__aeabi_uldivmod)
c:/program files/microchip/xc32/v4.20/bin/bin/../../lib/gcc/pic32c/8.3.1/thumb/v7e-m+dp/hard\libgcc.a(_udivmoddi4.o)
                              c:/program files/microchip/xc32/v4.20/bin/bin/../../lib/gcc/pic32c/8.3.1/thumb/v7e-m+dp/hard\libgcc.a(_aeabi_uldivmod.o) (__udivmoddi4)
c:/program files/microchip/xc32/v4.20/bin/bin/../../lib/gcc/pic32c/8.3.1/thumb/v7e-m+dp/hard\libgcc.a(_dvmd_tls.o)
                              c:/program files/microchip/xc32/v4.20/bin/bin/../../lib/gcc/pic32c/8.3.1/thumb/v7e-m+dp/hard\libgcc.a(_aeabi_uldivmod.o) (__aeabi_ldiv0)

Microchip PIC32 Memory-Usage Report

ROM Program-Memory Usage
section                    address  length [bytes]      (dec)  Description
-------                 ----------  -------------------------  -----------
.vectors                  0x400000          0x168         360   
.text                     0x400168           0x20          32  App's exec code 
.ARM.exidx                0x400188            0x8           8   
.text.__fmt_a             0x400190          0x3f0        1008   
.text.__fmt_fp            0x400580          0x3e8        1000   
.text.__printf_core       0x400968          0x2f4         756   
.text                     0x400c5c          0x2bc         700  App's exec code 
.text.APP_Tasks           0x400f18          0x1d4         468   
.dinit                    0x4010ec          0x180         384   
.text.USART1_InterruptH   0x40126c          0x17c         380   
.text.Reset_Handler       0x4013e8          0x178         376   
.rodata                   0x401560          0x16c         364  Read-only const 
.text.UART2_InterruptHa   0x4016cc          0x12c         300   
.text.UART1_InterruptHa   0x4017f8          0x12c         300   
.text.__fmt_x             0x401924          0x11e         286   
.text.Dummy_Handler       0x401a42            0x2           2   
.text.CLOCK_Initialize    0x401a44          0x11c         284   
.text.PIO_Initialize      0x401b60          0x110         272   
.text.floor               0x401c70           0xc4         196   
.text.MCAN0_INT0_Interr   0x401d34           0xb4         180   
.text.__pop_int           0x401de8           0xac         172   
.text.__fmt_d             0x401e94           0xa8         168   
.text.USART1_Write        0x401f3c           0xa4         164   
.text.__pad               0x401fe0           0x80         128   
.text.__pop_ptr           0x402060           0x7c         124   
.text.__cvt_u             0x4020dc           0x78         120   
.text.NVIC_Initialize     0x402154           0x74         116   
.text.__fmt_o             0x4021c8           0x72         114   
.text.NonMaskableInt_Ha   0x40223a            0x2           2   
.text.USART1_Initialize   0x40223c           0x6c         108   
.text.SYS_Initialize      0x4022a8           0x6c         108   
.text.SYS_CONSOLE_Print   0x402314           0x6c         108   
.text.MCAN0_Initialize    0x402380           0x68         104   
.text.__pic32c_data_ini   0x4023e8           0x60          96   
.text.vsnprintf           0x402448           0x60          96   
.text.__libc_start_init   0x4024a8           0x5c          92   
.text.USART1_Read         0x402504           0x58          88   
.text.__fmt_s             0x40255c           0x58          88   
.text.__fmt_u             0x4025b4           0x56          86   
.text.HardFault_Handler   0x40260a            0x2           2   
.text.SYS_CONSOLE_Initi   0x40260c           0x50          80   
.text.SYS_CONSOLE_Statu   0x40265c           0x50          80   
.text.AFEC1_Initialize    0x4026ac           0x4c          76   
.text.atoi                0x4026f8           0x46          70   
.text.DebugMonitor_Hand   0x40273e            0x2           2   
.text.UART2_Initialize    0x402740           0x44          68   
.text.UART1_Initialize    0x402784           0x44          68   
.text.AFEC0_Initialize    0x4027c8           0x44          68   
.text                     0x40280c           0x40          64  App's exec code 
.text.__fmt_state         0x40284c           0x38          56   
.text.SYS_CONSOLE_Read    0x402884           0x34          52   
.text.SYS_CONSOLE_ReadF   0x4028b8           0x34          52   
.text.SYS_CONSOLE_ReadC   0x4028ec           0x34          52   
.text.SYS_CONSOLE_Write   0x402920           0x34          52   
.text.SYS_CONSOLE_Write   0x402954           0x34          52   
.text.SYS_CONSOLE_Write   0x402988           0x34          52   
.text.Console_UART_Read   0x4029bc           0x34          52   
.text.Console_UART_Writ   0x4029f0           0x34          52   
.text.SYS_CONSOLE_Messa   0x402a24           0x30          48   
.text.Console_UART_Writ   0x402a54           0x30          48   
.text.Console_UART_Writ   0x402a84           0x30          48   
.text.Console_UART_Read   0x402ab4           0x30          48   
.text.Console_UART_Read   0x402ae4           0x30          48   
.text                     0x402b14           0x30          48  App's exec code 
.rodata.sysConsoleUARTD   0x402b44           0x2c          44   
.text.__pop_float         0x402b70           0x2a          42   
.text.MemoryManagement_   0x402b9a            0x2           2   
.text.TC0_CH0_TimerInit   0x402b9c           0x28          40   
.text.__string_out        0x402bc4           0x26          38   
.text.BusFault_Handler    0x402bea            0x2           2   
.text.TC0_CH0_Interrupt   0x402bec           0x24          36   
.text.USART1_WritePendi   0x402c10           0x1c          28   
.text.USART1_ReadCountG   0x402c2c           0x1c          28   
.text.SYS_DEBUG_Initial   0x402c48           0x1c          28   
.text.vfprintf            0x402c64           0x1c          28   
.rodata                   0x402c80           0x1c          28  Read-only const 
.rodata.sysConsole0UART   0x402c9c           0x18          24   
.text.UART2_WritePendin   0x402cb4           0x14          20   
.text.UART2_ReadCountGe   0x402cc8           0x14          20   
.text.UART1_WritePendin   0x402cdc           0x14          20   
.text.UART1_ReadCountGe   0x402cf0           0x14          20   
.text.USART1_ReadFreeBu   0x402d04           0x14          20   
.text.USART1_WriteFreeB   0x402d18           0x14          20   
.text.Console_UART_Init   0x402d2c           0x14          20   
.text.memcpy              0x402d40           0x12          18   
.text.stpcpy              0x402d52           0x12          18   
.text.BSP_Initialize      0x402d64           0x10          16   
.text.EFC_Initialize      0x402d74           0x10          16   
.text.Console_UART_Stat   0x402d84           0x10          16   
.text.memset              0x402d94           0x10          16   
.text.strlen              0x402da4           0x10          16   
.rodata                   0x402db4           0x20          32  Read-only const 
.text.main                0x402dd4            0xe          14   
.text.tolower             0x402de2            0xe          14   
.text.toupper             0x402df0            0xe          14   
.text.UART2_WriteFreeBu   0x402dfe            0xc          12   
.text.UART1_WriteFreeBu   0x402e0a            0xc          12   
.text.UsageFault_Handle   0x402e16            0x2           2   
.text.SYS_DEBUG_Console   0x402e18            0xc          12   
.text.SYS_DEBUG_ErrorLe   0x402e24            0xc          12   
.text.SYS_DEBUG_ErrorLe   0x402e30            0xc          12   
.rodata.sysConsole0Init   0x402e3c            0xc          12   
.text.APP_Initialize      0x402e48            0xc          12   
.text.strcpy              0x402e54            0xc          12   
.text.SYS_CONSOLE_Handl   0x402e60            0xa          10   
.text.USART1_WriteCount   0x402e6a            0x8           8   
.text.SYS_Tasks           0x402e72            0x8           8   
.rodata                   0x402e7a            0x7           7  Read-only const 
.text.Dummy_App_Func      0x402e82            0x2           2   
.rodata.debugInit         0x402e84            0x4           4   
.rodata.sysConsole0UART   0x402e88            0x4           4   
.text.Console_UART_Flus   0x402e8c            0x4           4   
.text.__pic32c_data_ini   0x402e90            0x4           4   
.text                     0x402e94            0x4           4  App's exec code 
.text.Console_UART_Task   0x402e98            0x2           2   
.text.__dummy             0x402e9a            0x2           2   
      Total ROM used  :      0x2e9b       11931  0.6% of 0x200000
        --------------------------------------------------------------------------
         Total Program Memory used  :      0x2e9b       11931  0.6% of 0x200000
        --------------------------------------------------------------------------


RAM Data-Memory Usage
section                    address  length [bytes]      (dec)  Description
-------                 ----------  -------------------------  -----------
.bss.USART1_WriteBuffer 0x20400000          0x200         512   
.bss.consolePrintBuffer 0x20400200           0xc8         200   
.bss.UART2_ReadBuffer   0x204002c8           0x80         128   
.bss.UART2_WriteBuffer  0x20400348           0x80         128   
.bss.UART1_ReadBuffer   0x204003c8           0x80         128   
.bss.UART1_WriteBuffer  0x20400448           0x80         128   
.bss.USART1_ReadBuffer  0x204004c8           0x80         128   
.bss                    0x20400548           0x50          80  Uninitialized data 
.bss.usart1Obj          0x20400598           0x40          64   
.bss.uart2Obj           0x204005d8           0x38          56   
.bss.uart1Obj           0x20400610           0x38          56   
.bss                    0x20400648           0x1c          28  Uninitialized data 
.bss.mcan0Obj           0x20400664           0x1c          28   
.bss.mcan0RxFifoCallbac 0x20400680           0x10          16   
.bss.consoleDeviceInsta 0x20400690            0xc          12   
.bss.uart_console_read_ 0x2040069c            0xa          10   
.bss.gblErrLvl          0x204006a6            0x1           1   
.bss.consolePrintBuffer 0x204006a7            0x1           1   
.bss.sysObj             0x204006a8            0x8           8   
.bss.TC0_CH0_CallbackOb 0x204006b0            0x8           8   
.bss.mcan0CallbackObj   0x204006b8            0x8           8   
.bss.mcan0TxEventFifoCa 0x204006c0            0x8           8   
.bss.mcan0TxFifoCallbac 0x204006c8            0x8           8   
.bss.appData            0x204006d0            0x8           8   
.bss.gConsoleUartData   0x204006d8            0x8           8   
.bss.sysDebugInstance   0x204006e0            0x4           4   
.bss.cmd.7902           0x204006e4            0x4           4   
.bss                    0x204006e8            0xc          12  Uninitialized data 
.bss.isConsoleMutexCrea 0x204006f4            0x1           1   
         Total RAM used  :       0x6f5        1781  0.5% of 0x60000
        --------------------------------------------------------------------------
            Total Data Memory used  :       0x6f5        1781  0.5% of 0x60000
        --------------------------------------------------------------------------


Dynamic Data-Memory Reservation
section                    address  length [bytes]      (dec)  Description
-------                 ----------  -------------------------  -----------
heap                    0x204006f8          0x200         512  Reserved for heap 
stack                   0x20400910        0x5f6e0      390880  Reserved for stack 

        --------------------------------------------------------------------------

Discarded input sections

 .text          0x00000000        0x0 c:/program files/microchip/xc32/v4.20/bin/bin/../../lib/gcc/pic32c/8.3.1/thumb/v7e-m+dp/hard/crti.o
 .data          0x00000000        0x0 c:/program files/microchip/xc32/v4.20/bin/bin/../../lib/gcc/pic32c/8.3.1/thumb/v7e-m+dp/hard/crti.o
 .bss           0x00000000        0x0 c:/program files/microchip/xc32/v4.20/bin/bin/../../lib/gcc/pic32c/8.3.1/thumb/v7e-m+dp/hard/crti.o
 .xc_stack_usage.hdr
                0x00000000        0xe c:/program files/microchip/xc32/v4.20/bin/bin/../../lib/gcc/pic32c/8.3.1/thumb/v7e-m+dp/hard/crti.o
 .xc_stack_usage
                0x00000000       0x26 c:/program files/microchip/xc32/v4.20/bin/bin/../../lib/gcc/pic32c/8.3.1/thumb/v7e-m+dp/hard/crti.o
 .data          0x00000000        0x4 c:/program files/microchip/xc32/v4.20/bin/bin/../../lib/gcc/pic32c/8.3.1/thumb/v7e-m+dp/hard/crtbegin.o
 .xc_stack_usage
                0x00000000       0x3c c:/program files/microchip/xc32/v4.20/bin/bin/../../lib/gcc/pic32c/8.3.1/thumb/v7e-m+dp/hard/crtbegin.o
 .xc_stack_usage.hdr
                0x00000000        0xe c:/program files/microchip/xc32/v4.20/bin/bin/../../lib/gcc/pic32c/8.3.1/thumb/v7e-m+dp/hard/crtbegin.o
 .text          0x00000000        0x0 build/sam_e70_xult/production/_ext/917764137/bsp.o
 .data          0x00000000        0x0 build/sam_e70_xult/production/_ext/917764137/bsp.o
 .bss           0x00000000        0x0 build/sam_e70_xult/production/_ext/917764137/bsp.o
 .text          0x00000000        0x0 build/sam_e70_xult/production/_ext/1055500827/plib_clk.o
 .data          0x00000000        0x0 build/sam_e70_xult/production/_ext/1055500827/plib_clk.o
 .bss           0x00000000        0x0 build/sam_e70_xult/production/_ext/1055500827/plib_clk.o
 .text          0x00000000        0x0 build/sam_e70_xult/production/_ext/1055499099/plib_efc.o
 .data          0x00000000        0x0 build/sam_e70_xult/production/_ext/1055499099/plib_efc.o
 .bss           0x00000000        0x0 build/sam_e70_xult/production/_ext/1055499099/plib_efc.o
 .text.EFC_Read
                0x00000000       0x10 build/sam_e70_xult/production/_ext/1055499099/plib_efc.o
 .text.EFC_SectorErase
                0x00000000       0x28 build/sam_e70_xult/production/_ext/1055499099/plib_efc.o
 .text.EFC_PageBufferWrite
                0x00000000       0x36 build/sam_e70_xult/production/_ext/1055499099/plib_efc.o
 .text.EFC_PageBufferCommit
                0x00000000       0x34 build/sam_e70_xult/production/_ext/1055499099/plib_efc.o
 .text.EFC_PageWrite
                0x00000000       0x58 build/sam_e70_xult/production/_ext/1055499099/plib_efc.o
 .text.EFC_QuadWordWrite
                0x00000000       0x44 build/sam_e70_xult/production/_ext/1055499099/plib_efc.o
 .text.EFC_RegionLock
                0x00000000       0x2c build/sam_e70_xult/production/_ext/1055499099/plib_efc.o
 .text.EFC_RegionUnlock
                0x00000000       0x2c build/sam_e70_xult/production/_ext/1055499099/plib_efc.o
 .text.EFC_IsBusy
                0x00000000       0x20 build/sam_e70_xult/production/_ext/1055499099/plib_efc.o
 .text.EFC_ErrorGet
                0x00000000       0x18 build/sam_e70_xult/production/_ext/1055499099/plib_efc.o
 .bss.efc_status
                0x00000000        0x4 build/sam_e70_xult/production/_ext/1055499099/plib_efc.o
 .text          0x00000000        0x0 build/sam_e70_xult/production/_ext/1639550079/plib_nvic.o
 .data          0x00000000        0x0 build/sam_e70_xult/production/_ext/1639550079/plib_nvic.o
 .bss           0x00000000        0x0 build/sam_e70_xult/production/_ext/1639550079/plib_nvic.o
 .text.NVIC_INT_Enable
                0x00000000        0x8 build/sam_e70_xult/production/_ext/1639550079/plib_nvic.o
 .text.NVIC_INT_Disable
                0x00000000       0x12 build/sam_e70_xult/production/_ext/1639550079/plib_nvic.o
 .text.NVIC_INT_Restore
                0x00000000       0x12 build/sam_e70_xult/production/_ext/1639550079/plib_nvic.o
 .text          0x00000000        0x0 build/sam_e70_xult/production/_ext/1055488423/plib_pio.o
 .data          0x00000000        0x0 build/sam_e70_xult/production/_ext/1055488423/plib_pio.o
 .bss           0x00000000        0x0 build/sam_e70_xult/production/_ext/1055488423/plib_pio.o
 .text.PIO_PortRead
                0x00000000        0x4 build/sam_e70_xult/production/_ext/1055488423/plib_pio.o
 .text.PIO_PortWrite
                0x00000000        0xc build/sam_e70_xult/production/_ext/1055488423/plib_pio.o
 .text.PIO_PortLatchRead
                0x00000000        0x4 build/sam_e70_xult/production/_ext/1055488423/plib_pio.o
 .text.PIO_PortSet
                0x00000000        0x4 build/sam_e70_xult/production/_ext/1055488423/plib_pio.o
 .text.PIO_PortClear
                0x00000000        0x4 build/sam_e70_xult/production/_ext/1055488423/plib_pio.o
 .text.PIO_PortToggle
                0x00000000        0x8 build/sam_e70_xult/production/_ext/1055488423/plib_pio.o
 .text.PIO_PortInputEnable
                0x00000000        0x4 build/sam_e70_xult/production/_ext/1055488423/plib_pio.o
 .text.PIO_PortOutputEnable
                0x00000000        0x4 build/sam_e70_xult/production/_ext/1055488423/plib_pio.o
 .text          0x00000000        0x0 build/sam_e70_xult/production/_ext/1639738731/plib_uart2.o
 .data          0x00000000        0x0 build/sam_e70_xult/production/_ext/1639738731/plib_uart2.o
 .bss           0x00000000        0x0 build/sam_e70_xult/production/_ext/1639738731/plib_uart2.o
 .text.UART2_SerialSetup
                0x00000000       0x40 build/sam_e70_xult/production/_ext/1639738731/plib_uart2.o
 .text.UART2_ErrorGet
                0x00000000       0x2c build/sam_e70_xult/production/_ext/1639738731/plib_uart2.o
 .text.UART2_Read
                0x00000000       0x84 build/sam_e70_xult/production/_ext/1639738731/plib_uart2.o
 .text.UART2_ReadFreeBufferCountGet
                0x00000000        0xc build/sam_e70_xult/production/_ext/1639738731/plib_uart2.o
 .text.UART2_ReadBufferSizeGet
                0x00000000        0x4 build/sam_e70_xult/production/_ext/1639738731/plib_uart2.o
 .text.UART2_ReadNotificationEnable
                0x00000000       0x18 build/sam_e70_xult/production/_ext/1639738731/plib_uart2.o
 .text.UART2_ReadThresholdSet
                0x00000000        0xc build/sam_e70_xult/production/_ext/1639738731/plib_uart2.o
 .text.UART2_ReadCallbackRegister
                0x00000000        0xc build/sam_e70_xult/production/_ext/1639738731/plib_uart2.o
 .text.UART2_WriteCountGet
                0x00000000        0x8 build/sam_e70_xult/production/_ext/1639738731/plib_uart2.o
 .text.UART2_Write
                0x00000000       0x58 build/sam_e70_xult/production/_ext/1639738731/plib_uart2.o
 .text.UART2_WriteBufferSizeGet
                0x00000000        0x4 build/sam_e70_xult/production/_ext/1639738731/plib_uart2.o
 .text.UART2_TransmitComplete
                0x00000000       0x10 build/sam_e70_xult/production/_ext/1639738731/plib_uart2.o
 .text.UART2_WriteNotificationEnable
                0x00000000       0x10 build/sam_e70_xult/production/_ext/1639738731/plib_uart2.o
 .text.UART2_WriteThresholdSet
                0x00000000        0xc build/sam_e70_xult/production/_ext/1639738731/plib_uart2.o
 .text.UART2_WriteCallbackRegister
                0x00000000        0xc build/sam_e70_xult/production/_ext/1639738731/plib_uart2.o
 .text          0x00000000        0x0 build/sam_e70_xult/production/_ext/1639738731/plib_uart1.o
 .data          0x00000000        0x0 build/sam_e70_xult/production/_ext/1639738731/plib_uart1.o
 .bss           0x00000000        0x0 build/sam_e70_xult/production/_ext/1639738731/plib_uart1.o
 .text.UART1_SerialSetup
                0x00000000       0x40 build/sam_e70_xult/production/_ext/1639738731/plib_uart1.o
 .text.UART1_ErrorGet
                0x00000000       0x2c build/sam_e70_xult/production/_ext/1639738731/plib_uart1.o
 .text.UART1_Read
                0x00000000       0x84 build/sam_e70_xult/production/_ext/1639738731/plib_uart1.o
 .text.UART1_ReadFreeBufferCountGet
                0x00000000        0xc build/sam_e70_xult/production/_ext/1639738731/plib_uart1.o
 .text.UART1_ReadBufferSizeGet
                0x00000000        0x4 build/sam_e70_xult/production/_ext/1639738731/plib_uart1.o
 .text.UART1_ReadNotificationEnable
                0x00000000       0x18 build/sam_e70_xult/production/_ext/1639738731/plib_uart1.o
 .text.UART1_ReadThresholdSet
                0x00000000        0xc build/sam_e70_xult/production/_ext/1639738731/plib_uart1.o
 .text.UART1_ReadCallbackRegister
                0x00000000        0xc build/sam_e70_xult/production/_ext/1639738731/plib_uart1.o
 .text.UART1_WriteCountGet
                0x00000000        0x8 build/sam_e70_xult/production/_ext/1639738731/plib_uart1.o
 .text.UART1_Write
                0x00000000       0x58 build/sam_e70_xult/production/_ext/1639738731/plib_uart1.o
 .text.UART1_WriteBufferSizeGet
                0x00000000        0x4 build/sam_e70_xult/production/_ext/1639738731/plib_uart1.o
 .text.UART1_TransmitComplete
                0x00000000       0x10 build/sam_e70_xult/production/_ext/1639738731/plib_uart1.o
 .text.UART1_WriteNotificationEnable
                0x00000000       0x10 build/sam_e70_xult/production/_ext/1639738731/plib_uart1.o
 .text.UART1_WriteThresholdSet
                0x00000000        0xc build/sam_e70_xult/production/_ext/1639738731/plib_uart1.o
 .text.UART1_WriteCallbackRegister
                0x00000000        0xc build/sam_e70_xult/production/_ext/1639738731/plib_uart1.o
 .text          0x00000000        0x0 build/sam_e70_xult/production/_ext/707186936/plib_usart1.o
 .data          0x00000000        0x0 build/sam_e70_xult/production/_ext/707186936/plib_usart1.o
 .bss           0x00000000        0x0 build/sam_e70_xult/production/_ext/707186936/plib_usart1.o
 .text.USART1_SerialSetup
                0x00000000       0x98 build/sam_e70_xult/production/_ext/707186936/plib_usart1.o
 .text.USART1_ErrorGet
                0x00000000       0x14 build/sam_e70_xult/production/_ext/707186936/plib_usart1.o
 .text.USART1_ReadBufferSizeGet
                0x00000000        0xc build/sam_e70_xult/production/_ext/707186936/plib_usart1.o
 .text.USART1_ReadNotificationEnable
                0x00000000       0x18 build/sam_e70_xult/production/_ext/707186936/plib_usart1.o
 .text.USART1_ReadThresholdSet
                0x00000000        0xc build/sam_e70_xult/production/_ext/707186936/plib_usart1.o
 .text.USART1_ReadCallbackRegister
                0x00000000        0xc build/sam_e70_xult/production/_ext/707186936/plib_usart1.o
 .text.USART1_WriteBufferSizeGet
                0x00000000        0xc build/sam_e70_xult/production/_ext/707186936/plib_usart1.o
 .text.USART1_TransmitComplete
                0x00000000       0x10 build/sam_e70_xult/production/_ext/707186936/plib_usart1.o
 .text.USART1_WriteNotificationEnable
                0x00000000       0x10 build/sam_e70_xult/production/_ext/707186936/plib_usart1.o
 .text.USART1_WriteThresholdSet
                0x00000000        0xc build/sam_e70_xult/production/_ext/707186936/plib_usart1.o
 .text.USART1_WriteCallbackRegister
                0x00000000        0xc build/sam_e70_xult/production/_ext/707186936/plib_usart1.o
 .text          0x00000000        0x0 build/sam_e70_xult/production/_ext/1518761459/xc32_monitor.o
 .data          0x00000000        0x0 build/sam_e70_xult/production/_ext/1518761459/xc32_monitor.o
 .bss           0x00000000        0x0 build/sam_e70_xult/production/_ext/1518761459/xc32_monitor.o
 .text.read     0x00000000        0x6 build/sam_e70_xult/production/_ext/1518761459/xc32_monitor.o
 .text.write    0x00000000        0x6 build/sam_e70_xult/production/_ext/1518761459/xc32_monitor.o
 .debug_info    0x00000000      0x32d build/sam_e70_xult/production/_ext/1518761459/xc32_monitor.o
 .debug_abbrev  0x00000000       0x96 build/sam_e70_xult/production/_ext/1518761459/xc32_monitor.o
 .debug_loc     0x00000000       0x4a build/sam_e70_xult/production/_ext/1518761459/xc32_monitor.o
 .debug_aranges
                0x00000000       0x28 build/sam_e70_xult/production/_ext/1518761459/xc32_monitor.o
 .debug_ranges  0x00000000       0x18 build/sam_e70_xult/production/_ext/1518761459/xc32_monitor.o
 .debug_line    0x00000000       0xcf build/sam_e70_xult/production/_ext/1518761459/xc32_monitor.o
 .debug_str     0x00000000        0x0 build/sam_e70_xult/production/_ext/1518761459/xc32_monitor.o
 .comment       0x00000000       0x2c build/sam_e70_xult/production/_ext/1518761459/xc32_monitor.o
 .debug_frame   0x00000000       0x30 build/sam_e70_xult/production/_ext/1518761459/xc32_monitor.o
 .ARM.attributes
                0x00000000       0x32 build/sam_e70_xult/production/_ext/1518761459/xc32_monitor.o
 .text          0x00000000        0x0 build/sam_e70_xult/production/_ext/876653320/sys_cache.o
 .data          0x00000000        0x0 build/sam_e70_xult/production/_ext/876653320/sys_cache.o
 .bss           0x00000000        0x0 build/sam_e70_xult/production/_ext/876653320/sys_cache.o
 .text.SYS_CACHE_EnableCaches
                0x00000000       0xb0 build/sam_e70_xult/production/_ext/876653320/sys_cache.o
 .text.SYS_CACHE_DisableCaches
                0x00000000       0x94 build/sam_e70_xult/production/_ext/876653320/sys_cache.o
 .text.SYS_CACHE_EnableICache
                0x00000000       0x44 build/sam_e70_xult/production/_ext/876653320/sys_cache.o
 .text.SYS_CACHE_DisableICache
                0x00000000       0x30 build/sam_e70_xult/production/_ext/876653320/sys_cache.o
 .text.SYS_CACHE_InvalidateICache
                0x00000000       0x28 build/sam_e70_xult/production/_ext/876653320/sys_cache.o
 .text.SYS_CACHE_EnableDCache
                0x00000000       0x74 build/sam_e70_xult/production/_ext/876653320/sys_cache.o
 .text.SYS_CACHE_DisableDCache
                0x00000000       0x68 build/sam_e70_xult/production/_ext/876653320/sys_cache.o
 .text.SYS_CACHE_InvalidateDCache
                0x00000000       0x5c build/sam_e70_xult/production/_ext/876653320/sys_cache.o
 .text.SYS_CACHE_CleanDCache
                0x00000000       0x5c build/sam_e70_xult/production/_ext/876653320/sys_cache.o
 .text.SYS_CACHE_CleanInvalidateDCache
                0x00000000       0x5c build/sam_e70_xult/production/_ext/876653320/sys_cache.o
 .text.SYS_CACHE_InvalidateDCache_by_Addr
                0x00000000       0x38 build/sam_e70_xult/production/_ext/876653320/sys_cache.o
 .text.SYS_CACHE_CleanDCache_by_Addr
                0x00000000       0x38 build/sam_e70_xult/production/_ext/876653320/sys_cache.o
 .text.SYS_CACHE_CleanInvalidateDCache_by_Addr
                0x00000000       0x38 build/sam_e70_xult/production/_ext/876653320/sys_cache.o
 .debug_info    0x00000000     0x15fc build/sam_e70_xult/production/_ext/876653320/sys_cache.o
 .debug_abbrev  0x00000000      0x235 build/sam_e70_xult/production/_ext/876653320/sys_cache.o
 .debug_loc     0x00000000      0x6bb build/sam_e70_xult/production/_ext/876653320/sys_cache.o
 .debug_aranges
                0x00000000       0x80 build/sam_e70_xult/production/_ext/876653320/sys_cache.o
 .debug_ranges  0x00000000       0xe8 build/sam_e70_xult/production/_ext/876653320/sys_cache.o
 .debug_line    0x00000000      0xae9 build/sam_e70_xult/production/_ext/876653320/sys_cache.o
 .debug_str     0x00000000       0x1c build/sam_e70_xult/production/_ext/876653320/sys_cache.o
 .comment       0x00000000       0x2c build/sam_e70_xult/production/_ext/876653320/sys_cache.o
 .debug_frame   0x00000000      0x150 build/sam_e70_xult/production/_ext/876653320/sys_cache.o
 .ARM.attributes
                0x00000000       0x32 build/sam_e70_xult/production/_ext/876653320/sys_cache.o
 .text          0x00000000        0x0 build/sam_e70_xult/production/_ext/1763620194/sys_debug.o
 .data          0x00000000        0x0 build/sam_e70_xult/production/_ext/1763620194/sys_debug.o
 .bss           0x00000000        0x0 build/sam_e70_xult/production/_ext/1763620194/sys_debug.o
 .text.SYS_DEBUG_Status
                0x00000000        0xc build/sam_e70_xult/production/_ext/1763620194/sys_debug.o
 .text.SYS_DEBUG_Redirect
                0x00000000       0x14 build/sam_e70_xult/production/_ext/1763620194/sys_debug.o
 .text          0x00000000        0x0 build/sam_e70_xult/production/_ext/1728594169/initialization.o
 .data          0x00000000        0x0 build/sam_e70_xult/production/_ext/1728594169/initialization.o
 .bss           0x00000000        0x0 build/sam_e70_xult/production/_ext/1728594169/initialization.o
 .text          0x00000000        0x0 build/sam_e70_xult/production/_ext/1728594169/interrupts.o
 .data          0x00000000        0x0 build/sam_e70_xult/production/_ext/1728594169/interrupts.o
 .bss           0x00000000        0x0 build/sam_e70_xult/production/_ext/1728594169/interrupts.o
 .text          0x00000000        0x0 build/sam_e70_xult/production/_ext/1728594169/exceptions.o
 .data          0x00000000        0x0 build/sam_e70_xult/production/_ext/1728594169/exceptions.o
 .bss           0x00000000        0x0 build/sam_e70_xult/production/_ext/1728594169/exceptions.o
 .text          0x00000000        0x0 build/sam_e70_xult/production/_ext/1728594169/startup_xc32.o
 .data          0x00000000        0x0 build/sam_e70_xult/production/_ext/1728594169/startup_xc32.o
 .bss           0x00000000        0x0 build/sam_e70_xult/production/_ext/1728594169/startup_xc32.o
 .text          0x00000000        0x0 build/sam_e70_xult/production/_ext/1728594169/libc_syscalls.o
 .data          0x00000000        0x0 build/sam_e70_xult/production/_ext/1728594169/libc_syscalls.o
 .bss           0x00000000        0x0 build/sam_e70_xult/production/_ext/1728594169/libc_syscalls.o
 .text._exit    0x00000000        0x2 build/sam_e70_xult/production/_ext/1728594169/libc_syscalls.o
 .debug_info    0x00000000      0x314 build/sam_e70_xult/production/_ext/1728594169/libc_syscalls.o
 .debug_abbrev  0x00000000       0x52 build/sam_e70_xult/production/_ext/1728594169/libc_syscalls.o
 .debug_loc     0x00000000       0x15 build/sam_e70_xult/production/_ext/1728594169/libc_syscalls.o
 .debug_aranges
                0x00000000       0x20 build/sam_e70_xult/production/_ext/1728594169/libc_syscalls.o
 .debug_ranges  0x00000000       0x10 build/sam_e70_xult/production/_ext/1728594169/libc_syscalls.o
 .debug_line    0x00000000       0x60 build/sam_e70_xult/production/_ext/1728594169/libc_syscalls.o
 .debug_str     0x00000000        0x0 build/sam_e70_xult/production/_ext/1728594169/libc_syscalls.o
 .comment       0x00000000       0x2c build/sam_e70_xult/production/_ext/1728594169/libc_syscalls.o
 .debug_frame   0x00000000       0x20 build/sam_e70_xult/production/_ext/1728594169/libc_syscalls.o
 .ARM.attributes
                0x00000000       0x32 build/sam_e70_xult/production/_ext/1728594169/libc_syscalls.o
 .text          0x00000000        0x0 build/sam_e70_xult/production/_ext/1360937237/main.o
 .data          0x00000000        0x0 build/sam_e70_xult/production/_ext/1360937237/main.o
 .bss           0x00000000        0x0 build/sam_e70_xult/production/_ext/1360937237/main.o
 .text          0x00000000        0x0 build/sam_e70_xult/production/_ext/1639147296/plib_afec0.o
 .data          0x00000000        0x0 build/sam_e70_xult/production/_ext/1639147296/plib_afec0.o
 .bss           0x00000000        0x0 build/sam_e70_xult/production/_ext/1639147296/plib_afec0.o
 .text.AFEC0_ChannelsEnable
                0x00000000       0x10 build/sam_e70_xult/production/_ext/1639147296/plib_afec0.o
 .text.AFEC0_ChannelsDisable
                0x00000000       0x10 build/sam_e70_xult/production/_ext/1639147296/plib_afec0.o
 .text.AFEC0_ChannelsInterruptEnable
                0x00000000       0x10 build/sam_e70_xult/production/_ext/1639147296/plib_afec0.o
 .text.AFEC0_ChannelsInterruptDisable
                0x00000000       0x10 build/sam_e70_xult/production/_ext/1639147296/plib_afec0.o
 .text.AFEC0_ConversionStart
                0x00000000        0xc build/sam_e70_xult/production/_ext/1639147296/plib_afec0.o
 .text.AFEC0_ChannelResultIsReady
                0x00000000       0x14 build/sam_e70_xult/production/_ext/1639147296/plib_afec0.o
 .text.AFEC0_ChannelResultGet
                0x00000000       0x10 build/sam_e70_xult/production/_ext/1639147296/plib_afec0.o
 .text.AFEC0_ConversionSequenceSet
                0x00000000       0x60 build/sam_e70_xult/production/_ext/1639147296/plib_afec0.o
 .text.AFEC0_ChannelGainSet
                0x00000000       0x24 build/sam_e70_xult/production/_ext/1639147296/plib_afec0.o
 .text.AFEC0_ChannelOffsetSet
                0x00000000        0xc build/sam_e70_xult/production/_ext/1639147296/plib_afec0.o
 .text.AFEC0_ComparatorChannelSet
                0x00000000       0x18 build/sam_e70_xult/production/_ext/1639147296/plib_afec0.o
 .text.AFEC0_CompareAllChannelsEnable
                0x00000000       0x10 build/sam_e70_xult/production/_ext/1639147296/plib_afec0.o
 .text.AFEC0_CompareAllChannelsDisable
                0x00000000       0x10 build/sam_e70_xult/production/_ext/1639147296/plib_afec0.o
 .text.AFEC0_ComparatorModeSet
                0x00000000       0x18 build/sam_e70_xult/production/_ext/1639147296/plib_afec0.o
 .text.AFEC0_StatusGet
                0x00000000        0xc build/sam_e70_xult/production/_ext/1639147296/plib_afec0.o
 .text.AFEC0_ComparatorStatusGet
                0x00000000       0x10 build/sam_e70_xult/production/_ext/1639147296/plib_afec0.o
 .text          0x00000000        0x0 build/sam_e70_xult/production/_ext/1639147296/plib_afec1.o
 .data          0x00000000        0x0 build/sam_e70_xult/production/_ext/1639147296/plib_afec1.o
 .bss           0x00000000        0x0 build/sam_e70_xult/production/_ext/1639147296/plib_afec1.o
 .text.AFEC1_ChannelsEnable
                0x00000000       0x10 build/sam_e70_xult/production/_ext/1639147296/plib_afec1.o
 .text.AFEC1_ChannelsDisable
                0x00000000       0x10 build/sam_e70_xult/production/_ext/1639147296/plib_afec1.o
 .text.AFEC1_ChannelsInterruptEnable
                0x00000000       0x10 build/sam_e70_xult/production/_ext/1639147296/plib_afec1.o
 .text.AFEC1_ChannelsInterruptDisable
                0x00000000       0x10 build/sam_e70_xult/production/_ext/1639147296/plib_afec1.o
 .text.AFEC1_ConversionStart
                0x00000000        0xc build/sam_e70_xult/production/_ext/1639147296/plib_afec1.o
 .text.AFEC1_ChannelResultIsReady
                0x00000000       0x14 build/sam_e70_xult/production/_ext/1639147296/plib_afec1.o
 .text.AFEC1_ChannelResultGet
                0x00000000       0x10 build/sam_e70_xult/production/_ext/1639147296/plib_afec1.o
 .text.AFEC1_ConversionSequenceSet
                0x00000000       0x60 build/sam_e70_xult/production/_ext/1639147296/plib_afec1.o
 .text.AFEC1_ChannelGainSet
                0x00000000       0x24 build/sam_e70_xult/production/_ext/1639147296/plib_afec1.o
 .text.AFEC1_ChannelOffsetSet
                0x00000000        0xc build/sam_e70_xult/production/_ext/1639147296/plib_afec1.o
 .text.AFEC1_ComparatorChannelSet
                0x00000000       0x18 build/sam_e70_xult/production/_ext/1639147296/plib_afec1.o
 .text.AFEC1_CompareAllChannelsEnable
                0x00000000       0x10 build/sam_e70_xult/production/_ext/1639147296/plib_afec1.o
 .text.AFEC1_CompareAllChannelsDisable
                0x00000000       0x10 build/sam_e70_xult/production/_ext/1639147296/plib_afec1.o
 .text.AFEC1_ComparatorModeSet
                0x00000000       0x18 build/sam_e70_xult/production/_ext/1639147296/plib_afec1.o
 .text.AFEC1_StatusGet
                0x00000000        0xc build/sam_e70_xult/production/_ext/1639147296/plib_afec1.o
 .text.AFEC1_ComparatorStatusGet
                0x00000000       0x10 build/sam_e70_xult/production/_ext/1639147296/plib_afec1.o
 .text          0x00000000        0x0 build/sam_e70_xult/production/_ext/865331892/plib_tc0.o
 .data          0x00000000        0x0 build/sam_e70_xult/production/_ext/865331892/plib_tc0.o
 .bss           0x00000000        0x0 build/sam_e70_xult/production/_ext/865331892/plib_tc0.o
 .text.TC0_CH0_TimerStart
                0x00000000        0xc build/sam_e70_xult/production/_ext/865331892/plib_tc0.o
 .text.TC0_CH0_TimerStop
                0x00000000        0xc build/sam_e70_xult/production/_ext/865331892/plib_tc0.o
 .text.TC0_CH0_TimerFrequencyGet
                0x00000000        0x8 build/sam_e70_xult/production/_ext/865331892/plib_tc0.o
 .text.TC0_CH0_TimerPeriodSet
                0x00000000        0xc build/sam_e70_xult/production/_ext/865331892/plib_tc0.o
 .text.TC0_CH0_TimerPeriodGet
                0x00000000        0xc build/sam_e70_xult/production/_ext/865331892/plib_tc0.o
 .text.TC0_CH0_TimerCounterGet
                0x00000000        0xc build/sam_e70_xult/production/_ext/865331892/plib_tc0.o
 .text.TC0_CH0_TimerCallbackRegister
                0x00000000        0xc build/sam_e70_xult/production/_ext/865331892/plib_tc0.o
 .text          0x00000000        0x0 build/sam_e70_xult/production/_ext/1639501792/plib_mcan0.o
 .data          0x00000000        0x0 build/sam_e70_xult/production/_ext/1639501792/plib_mcan0.o
 .bss           0x00000000        0x0 build/sam_e70_xult/production/_ext/1639501792/plib_mcan0.o
 .text.MCAN0_MessageTransmitFifo
                0x00000000       0x80 build/sam_e70_xult/production/_ext/1639501792/plib_mcan0.o
 .text.MCAN0_TxFifoFreeLevelGet
                0x00000000       0x10 build/sam_e70_xult/production/_ext/1639501792/plib_mcan0.o
 .text.MCAN0_TxBufferIsBusy
                0x00000000       0x14 build/sam_e70_xult/production/_ext/1639501792/plib_mcan0.o
 .text.MCAN0_TxEventFifoRead
                0x00000000       0x60 build/sam_e70_xult/production/_ext/1639501792/plib_mcan0.o
 .text.MCAN0_MessageReceiveFifo
                0x00000000       0xd8 build/sam_e70_xult/production/_ext/1639501792/plib_mcan0.o
 .text.MCAN0_ErrorGet
                0x00000000       0x30 build/sam_e70_xult/production/_ext/1639501792/plib_mcan0.o
 .text.MCAN0_ErrorCountGet
                0x00000000       0x14 build/sam_e70_xult/production/_ext/1639501792/plib_mcan0.o
 .text.MCAN0_MessageRAMConfigSet
                0x00000000       0xb4 build/sam_e70_xult/production/_ext/1639501792/plib_mcan0.o
 .text.MCAN0_SleepModeEnter
                0x00000000       0x18 build/sam_e70_xult/production/_ext/1639501792/plib_mcan0.o
 .text.MCAN0_SleepModeExit
                0x00000000       0x2c build/sam_e70_xult/production/_ext/1639501792/plib_mcan0.o
 .text.MCAN0_TxFifoCallbackRegister
                0x00000000       0x10 build/sam_e70_xult/production/_ext/1639501792/plib_mcan0.o
 .text.MCAN0_TxEventFifoCallbackRegister
                0x00000000       0x10 build/sam_e70_xult/production/_ext/1639501792/plib_mcan0.o
 .text.MCAN0_RxFifoCallbackRegister
                0x00000000       0x1c build/sam_e70_xult/production/_ext/1639501792/plib_mcan0.o
 .text.MCAN0_CallbackRegister
                0x00000000       0x10 build/sam_e70_xult/production/_ext/1639501792/plib_mcan0.o
 .text          0x00000000        0x0 build/sam_e70_xult/production/_ext/766002106/sys_int.o
 .data          0x00000000        0x0 build/sam_e70_xult/production/_ext/766002106/sys_int.o
 .bss           0x00000000        0x0 build/sam_e70_xult/production/_ext/766002106/sys_int.o
 .text.SYS_INT_Enable
                0x00000000        0x8 build/sam_e70_xult/production/_ext/766002106/sys_int.o
 .text.SYS_INT_Disable
                0x00000000        0x8 build/sam_e70_xult/production/_ext/766002106/sys_int.o
 .text.SYS_INT_Restore
                0x00000000        0x8 build/sam_e70_xult/production/_ext/766002106/sys_int.o
 .text.SYS_INT_SourceDisable
                0x00000000       0x44 build/sam_e70_xult/production/_ext/766002106/sys_int.o
 .text.SYS_INT_SourceRestore
                0x00000000       0x20 build/sam_e70_xult/production/_ext/766002106/sys_int.o
 .debug_info    0x00000000      0xc92 build/sam_e70_xult/production/_ext/766002106/sys_int.o
 .debug_abbrev  0x00000000      0x254 build/sam_e70_xult/production/_ext/766002106/sys_int.o
 .debug_loc     0x00000000      0x182 build/sam_e70_xult/production/_ext/766002106/sys_int.o
 .debug_aranges
                0x00000000       0x40 build/sam_e70_xult/production/_ext/766002106/sys_int.o
 .debug_ranges  0x00000000       0x48 build/sam_e70_xult/production/_ext/766002106/sys_int.o
 .debug_line    0x00000000      0x2d3 build/sam_e70_xult/production/_ext/766002106/sys_int.o
 .debug_str     0x00000000       0x32 build/sam_e70_xult/production/_ext/766002106/sys_int.o
 .comment       0x00000000       0x2c build/sam_e70_xult/production/_ext/766002106/sys_int.o
 .debug_frame   0x00000000       0x84 build/sam_e70_xult/production/_ext/766002106/sys_int.o
 .ARM.attributes
                0x00000000       0x32 build/sam_e70_xult/production/_ext/766002106/sys_int.o
 .text          0x00000000        0x0 build/sam_e70_xult/production/_ext/1953779166/sys_console.o
 .data          0x00000000        0x0 build/sam_e70_xult/production/_ext/1953779166/sys_console.o
 .bss           0x00000000        0x0 build/sam_e70_xult/production/_ext/1953779166/sys_console.o
 .text.SYS_CONSOLE_DeviceGet
                0x00000000       0x18 build/sam_e70_xult/production/_ext/1953779166/sys_console.o
 .text.SYS_CONSOLE_Tasks
                0x00000000       0x28 build/sam_e70_xult/production/_ext/1953779166/sys_console.o
 .text.SYS_CONSOLE_Flush
                0x00000000       0x2c build/sam_e70_xult/production/_ext/1953779166/sys_console.o
 .text          0x00000000        0x0 build/sam_e70_xult/production/_ext/1360937237/app.o
 .data          0x00000000        0x0 build/sam_e70_xult/production/_ext/1360937237/app.o
 .bss           0x00000000        0x0 build/sam_e70_xult/production/_ext/1360937237/app.o
 .bss.uart1buffer
                0x00000000        0xa build/sam_e70_xult/production/_ext/1360937237/app.o
 .bss.uart2buffer
                0x00000000       0x50 build/sam_e70_xult/production/_ext/1360937237/app.o
 .text          0x00000000        0x0 build/sam_e70_xult/production/_ext/1728594169/tasks.o
 .data          0x00000000        0x0 build/sam_e70_xult/production/_ext/1728594169/tasks.o
 .bss           0x00000000        0x0 build/sam_e70_xult/production/_ext/1728594169/tasks.o
 .text          0x00000000        0x0 build/sam_e70_xult/production/_ext/1953779166/sys_console_uart.o
 .data          0x00000000        0x0 build/sam_e70_xult/production/_ext/1953779166/sys_console_uart.o
 .bss           0x00000000        0x0 build/sam_e70_xult/production/_ext/1953779166/sys_console_uart.o
 .text          0x00000000        0x0 c:/program files/microchip/xc32/v4.20/bin/bin/../../lib/gcc/pic32c/8.3.1/../../../../pic32c/lib/thumb/v7e-m+dp/hard\libpic32c.a(data_init_wrapper.o)
 .data          0x00000000        0x0 c:/program files/microchip/xc32/v4.20/bin/bin/../../lib/gcc/pic32c/8.3.1/../../../../pic32c/lib/thumb/v7e-m+dp/hard\libpic32c.a(data_init_wrapper.o)
 .bss           0x00000000        0x0 c:/program files/microchip/xc32/v4.20/bin/bin/../../lib/gcc/pic32c/8.3.1/../../../../pic32c/lib/thumb/v7e-m+dp/hard\libpic32c.a(data_init_wrapper.o)
 .xc_stack_usage
                0x00000000       0x2a c:/program files/microchip/xc32/v4.20/bin/bin/../../lib/gcc/pic32c/8.3.1/../../../../pic32c/lib/thumb/v7e-m+dp/hard\libpic32c.a(data_init_wrapper.o)
 .xc_stack_usage.hdr
                0x00000000        0xe c:/program files/microchip/xc32/v4.20/bin/bin/../../lib/gcc/pic32c/8.3.1/../../../../pic32c/lib/thumb/v7e-m+dp/hard\libpic32c.a(data_init_wrapper.o)
 .text          0x00000000        0x0 c:/program files/microchip/xc32/v4.20/bin/bin/../../lib/gcc/pic32c/8.3.1/../../../../pic32c/lib/thumb/v7e-m+dp/hard\libpic32c.a(data_init_0_1.o)
 .data          0x00000000        0x0 c:/program files/microchip/xc32/v4.20/bin/bin/../../lib/gcc/pic32c/8.3.1/../../../../pic32c/lib/thumb/v7e-m+dp/hard\libpic32c.a(data_init_0_1.o)
 .xc_stack_usage
                0x00000000       0x2f c:/program files/microchip/xc32/v4.20/bin/bin/../../lib/gcc/pic32c/8.3.1/../../../../pic32c/lib/thumb/v7e-m+dp/hard\libpic32c.a(data_init_0_1.o)
 .xc_stack_usage.hdr
                0x00000000        0xe c:/program files/microchip/xc32/v4.20/bin/bin/../../lib/gcc/pic32c/8.3.1/../../../../pic32c/lib/thumb/v7e-m+dp/hard\libpic32c.a(data_init_0_1.o)
 .text          0x00000000        0x0 c:/program files/microchip/xc32/v4.20/bin/bin/../../lib/gcc/pic32c/8.3.1/../../../../pic32c/lib/thumb/v7e-m+dp/hard\libc-musl.a(__libc_start_main.o)
 .data          0x00000000        0x0 c:/program files/microchip/xc32/v4.20/bin/bin/../../lib/gcc/pic32c/8.3.1/../../../../pic32c/lib/thumb/v7e-m+dp/hard\libc-musl.a(__libc_start_main.o)
 .bss           0x00000000        0x0 c:/program files/microchip/xc32/v4.20/bin/bin/../../lib/gcc/pic32c/8.3.1/../../../../pic32c/lib/thumb/v7e-m+dp/hard\libc-musl.a(__libc_start_main.o)
 .xc_stack_usage
                0x00000000       0x34 c:/program files/microchip/xc32/v4.20/bin/bin/../../lib/gcc/pic32c/8.3.1/../../../../pic32c/lib/thumb/v7e-m+dp/hard\libc-musl.a(__libc_start_main.o)
 .xc_stack_usage.hdr
                0x00000000        0xe c:/program files/microchip/xc32/v4.20/bin/bin/../../lib/gcc/pic32c/8.3.1/../../../../pic32c/lib/thumb/v7e-m+dp/hard\libc-musl.a(__libc_start_main.o)
 .text          0x00000000        0x0 c:/program files/microchip/xc32/v4.20/bin/bin/../../lib/gcc/pic32c/8.3.1/../../../../pic32c/lib/thumb/v7e-m+dp/hard\libc-musl.a(libc.o)
 .data          0x00000000        0x0 c:/program files/microchip/xc32/v4.20/bin/bin/../../lib/gcc/pic32c/8.3.1/../../../../pic32c/lib/thumb/v7e-m+dp/hard\libc-musl.a(libc.o)
 .xc_stack_usage.hdr
                0x00000000        0xe c:/program files/microchip/xc32/v4.20/bin/bin/../../lib/gcc/pic32c/8.3.1/../../../../pic32c/lib/thumb/v7e-m+dp/hard\libc-musl.a(libc.o)
 .text          0x00000000        0x0 c:/program files/microchip/xc32/v4.20/bin/bin/../../lib/gcc/pic32c/8.3.1/../../../../pic32c/lib/thumb/v7e-m+dp/hard\libc-musl.a(vsnprintf.o)
 .data          0x00000000        0x0 c:/program files/microchip/xc32/v4.20/bin/bin/../../lib/gcc/pic32c/8.3.1/../../../../pic32c/lib/thumb/v7e-m+dp/hard\libc-musl.a(vsnprintf.o)
 .bss           0x00000000        0x0 c:/program files/microchip/xc32/v4.20/bin/bin/../../lib/gcc/pic32c/8.3.1/../../../../pic32c/lib/thumb/v7e-m+dp/hard\libc-musl.a(vsnprintf.o)
 .xc_stack_usage
                0x00000000       0x17 c:/program files/microchip/xc32/v4.20/bin/bin/../../lib/gcc/pic32c/8.3.1/../../../../pic32c/lib/thumb/v7e-m+dp/hard\libc-musl.a(vsnprintf.o)
 .xc_stack_usage.hdr
                0x00000000        0xe c:/program files/microchip/xc32/v4.20/bin/bin/../../lib/gcc/pic32c/8.3.1/../../../../pic32c/lib/thumb/v7e-m+dp/hard\libc-musl.a(vsnprintf.o)
 .text          0x00000000        0x0 c:/program files/microchip/xc32/v4.20/bin/bin/../../lib/gcc/pic32c/8.3.1/../../../../pic32c/lib/thumb/v7e-m+dp/hard\libc-musl.a(memcpy.o)
 .data          0x00000000        0x0 c:/program files/microchip/xc32/v4.20/bin/bin/../../lib/gcc/pic32c/8.3.1/../../../../pic32c/lib/thumb/v7e-m+dp/hard\libc-musl.a(memcpy.o)
 .bss           0x00000000        0x0 c:/program files/microchip/xc32/v4.20/bin/bin/../../lib/gcc/pic32c/8.3.1/../../../../pic32c/lib/thumb/v7e-m+dp/hard\libc-musl.a(memcpy.o)
 .xc_stack_usage
                0x00000000       0x14 c:/program files/microchip/xc32/v4.20/bin/bin/../../lib/gcc/pic32c/8.3.1/../../../../pic32c/lib/thumb/v7e-m+dp/hard\libc-musl.a(memcpy.o)
 .xc_stack_usage.hdr
                0x00000000        0xe c:/program files/microchip/xc32/v4.20/bin/bin/../../lib/gcc/pic32c/8.3.1/../../../../pic32c/lib/thumb/v7e-m+dp/hard\libc-musl.a(memcpy.o)
 .text          0x00000000        0x0 c:/program files/microchip/xc32/v4.20/bin/bin/../../lib/gcc/pic32c/8.3.1/../../../../pic32c/lib/thumb/v7e-m+dp/hard\libc-musl.a(memset.o)
 .data          0x00000000        0x0 c:/program files/microchip/xc32/v4.20/bin/bin/../../lib/gcc/pic32c/8.3.1/../../../../pic32c/lib/thumb/v7e-m+dp/hard\libc-musl.a(memset.o)
 .bss           0x00000000        0x0 c:/program files/microchip/xc32/v4.20/bin/bin/../../lib/gcc/pic32c/8.3.1/../../../../pic32c/lib/thumb/v7e-m+dp/hard\libc-musl.a(memset.o)
 .xc_stack_usage
                0x00000000       0x14 c:/program files/microchip/xc32/v4.20/bin/bin/../../lib/gcc/pic32c/8.3.1/../../../../pic32c/lib/thumb/v7e-m+dp/hard\libc-musl.a(memset.o)
 .xc_stack_usage.hdr
                0x00000000        0xe c:/program files/microchip/xc32/v4.20/bin/bin/../../lib/gcc/pic32c/8.3.1/../../../../pic32c/lib/thumb/v7e-m+dp/hard\libc-musl.a(memset.o)
 .text          0x00000000        0x0 c:/program files/microchip/xc32/v4.20/bin/bin/../../lib/gcc/pic32c/8.3.1/../../../../pic32c/lib/thumb/v7e-m+dp/hard\libc-musl.a(strlen.o)
 .data          0x00000000        0x0 c:/program files/microchip/xc32/v4.20/bin/bin/../../lib/gcc/pic32c/8.3.1/../../../../pic32c/lib/thumb/v7e-m+dp/hard\libc-musl.a(strlen.o)
 .bss           0x00000000        0x0 c:/program files/microchip/xc32/v4.20/bin/bin/../../lib/gcc/pic32c/8.3.1/../../../../pic32c/lib/thumb/v7e-m+dp/hard\libc-musl.a(strlen.o)
 .xc_stack_usage
                0x00000000       0x14 c:/program files/microchip/xc32/v4.20/bin/bin/../../lib/gcc/pic32c/8.3.1/../../../../pic32c/lib/thumb/v7e-m+dp/hard\libc-musl.a(strlen.o)
 .xc_stack_usage.hdr
                0x00000000        0xe c:/program files/microchip/xc32/v4.20/bin/bin/../../lib/gcc/pic32c/8.3.1/../../../../pic32c/lib/thumb/v7e-m+dp/hard\libc-musl.a(strlen.o)
 .text          0x00000000        0x0 c:/program files/microchip/xc32/v4.20/bin/bin/../../lib/gcc/pic32c/8.3.1/../../../../pic32c/lib/thumb/v7e-m+dp/hard\libc-musl.a(__environ.o)
 .data          0x00000000        0x0 c:/program files/microchip/xc32/v4.20/bin/bin/../../lib/gcc/pic32c/8.3.1/../../../../pic32c/lib/thumb/v7e-m+dp/hard\libc-musl.a(__environ.o)
 .xc_stack_usage.hdr
                0x00000000        0xe c:/program files/microchip/xc32/v4.20/bin/bin/../../lib/gcc/pic32c/8.3.1/../../../../pic32c/lib/thumb/v7e-m+dp/hard\libc-musl.a(__environ.o)
 .text          0x00000000        0x0 c:/program files/microchip/xc32/v4.20/bin/bin/../../lib/gcc/pic32c/8.3.1/../../../../pic32c/lib/thumb/v7e-m+dp/hard\libc-musl.a(__errno_location.o)
 .data          0x00000000        0x0 c:/program files/microchip/xc32/v4.20/bin/bin/../../lib/gcc/pic32c/8.3.1/../../../../pic32c/lib/thumb/v7e-m+dp/hard\libc-musl.a(__errno_location.o)
 .xc_stack_usage.hdr
                0x00000000        0xe c:/program files/microchip/xc32/v4.20/bin/bin/../../lib/gcc/pic32c/8.3.1/../../../../pic32c/lib/thumb/v7e-m+dp/hard\libc-musl.a(__errno_location.o)
 .text          0x00000000        0x0 c:/program files/microchip/xc32/v4.20/bin/bin/../../lib/gcc/pic32c/8.3.1/../../../../pic32c/lib/thumb/v7e-m+dp/hard\libc-musl.a(vfprintf.o)
 .data          0x00000000        0x0 c:/program files/microchip/xc32/v4.20/bin/bin/../../lib/gcc/pic32c/8.3.1/../../../../pic32c/lib/thumb/v7e-m+dp/hard\libc-musl.a(vfprintf.o)
 .bss           0x00000000        0x0 c:/program files/microchip/xc32/v4.20/bin/bin/../../lib/gcc/pic32c/8.3.1/../../../../pic32c/lib/thumb/v7e-m+dp/hard\libc-musl.a(vfprintf.o)
 .xc_stack_usage
                0x00000000       0x38 c:/program files/microchip/xc32/v4.20/bin/bin/../../lib/gcc/pic32c/8.3.1/../../../../pic32c/lib/thumb/v7e-m+dp/hard\libc-musl.a(vfprintf.o)
 .xc_stack_usage.hdr
                0x00000000        0xe c:/program files/microchip/xc32/v4.20/bin/bin/../../lib/gcc/pic32c/8.3.1/../../../../pic32c/lib/thumb/v7e-m+dp/hard\libc-musl.a(vfprintf.o)
 .text          0x00000000        0x0 c:/program files/microchip/xc32/v4.20/bin/bin/../../lib/gcc/pic32c/8.3.1/../../../../pic32c/lib/thumb/v7e-m+dp/hard\libc-musl.a(__io_fmt_needed.o)
 .data          0x00000000        0x0 c:/program files/microchip/xc32/v4.20/bin/bin/../../lib/gcc/pic32c/8.3.1/../../../../pic32c/lib/thumb/v7e-m+dp/hard\libc-musl.a(__io_fmt_needed.o)
 .bss           0x00000000        0x0 c:/program files/microchip/xc32/v4.20/bin/bin/../../lib/gcc/pic32c/8.3.1/../../../../pic32c/lib/thumb/v7e-m+dp/hard\libc-musl.a(__io_fmt_needed.o)
 .xc_stack_usage
                0x00000000       0x1d c:/program files/microchip/xc32/v4.20/bin/bin/../../lib/gcc/pic32c/8.3.1/../../../../pic32c/lib/thumb/v7e-m+dp/hard\libc-musl.a(__io_fmt_needed.o)
 .xc_stack_usage.hdr
                0x00000000        0xe c:/program files/microchip/xc32/v4.20/bin/bin/../../lib/gcc/pic32c/8.3.1/../../../../pic32c/lib/thumb/v7e-m+dp/hard\libc-musl.a(__io_fmt_needed.o)
 .debug_info    0x00000000      0x3f5 c:/program files/microchip/xc32/v4.20/bin/bin/../../lib/gcc/pic32c/8.3.1/../../../../pic32c/lib/thumb/v7e-m+dp/hard\libc-musl.a(__io_fmt_needed.o)
 .debug_abbrev  0x00000000       0x6a c:/program files/microchip/xc32/v4.20/bin/bin/../../lib/gcc/pic32c/8.3.1/../../../../pic32c/lib/thumb/v7e-m+dp/hard\libc-musl.a(__io_fmt_needed.o)
 .debug_loc     0x00000000       0x2c c:/program files/microchip/xc32/v4.20/bin/bin/../../lib/gcc/pic32c/8.3.1/../../../../pic32c/lib/thumb/v7e-m+dp/hard\libc-musl.a(__io_fmt_needed.o)
 .debug_aranges
                0x00000000       0x20 c:/program files/microchip/xc32/v4.20/bin/bin/../../lib/gcc/pic32c/8.3.1/../../../../pic32c/lib/thumb/v7e-m+dp/hard\libc-musl.a(__io_fmt_needed.o)
 .debug_ranges  0x00000000       0x10 c:/program files/microchip/xc32/v4.20/bin/bin/../../lib/gcc/pic32c/8.3.1/../../../../pic32c/lib/thumb/v7e-m+dp/hard\libc-musl.a(__io_fmt_needed.o)
 .debug_line    0x00000000       0xcb c:/program files/microchip/xc32/v4.20/bin/bin/../../lib/gcc/pic32c/8.3.1/../../../../pic32c/lib/thumb/v7e-m+dp/hard\libc-musl.a(__io_fmt_needed.o)
 .debug_str     0x00000000       0x9e c:/program files/microchip/xc32/v4.20/bin/bin/../../lib/gcc/pic32c/8.3.1/../../../../pic32c/lib/thumb/v7e-m+dp/hard\libc-musl.a(__io_fmt_needed.o)
 .comment       0x00000000       0x2c c:/program files/microchip/xc32/v4.20/bin/bin/../../lib/gcc/pic32c/8.3.1/../../../../pic32c/lib/thumb/v7e-m+dp/hard\libc-musl.a(__io_fmt_needed.o)
 .note.GNU-stack
                0x00000000        0x0 c:/program files/microchip/xc32/v4.20/bin/bin/../../lib/gcc/pic32c/8.3.1/../../../../pic32c/lib/thumb/v7e-m+dp/hard\libc-musl.a(__io_fmt_needed.o)
 .debug_frame   0x00000000       0x2c c:/program files/microchip/xc32/v4.20/bin/bin/../../lib/gcc/pic32c/8.3.1/../../../../pic32c/lib/thumb/v7e-m+dp/hard\libc-musl.a(__io_fmt_needed.o)
 .ARM.attributes
                0x00000000       0x34 c:/program files/microchip/xc32/v4.20/bin/bin/../../lib/gcc/pic32c/8.3.1/../../../../pic32c/lib/thumb/v7e-m+dp/hard\libc-musl.a(__io_fmt_needed.o)
 .text          0x00000000        0x0 c:/program files/microchip/xc32/v4.20/bin/bin/../../lib/gcc/pic32c/8.3.1/../../../../pic32c/lib/thumb/v7e-m+dp/hard\libc-musl.a(__pop_float.o)
 .data          0x00000000        0x0 c:/program files/microchip/xc32/v4.20/bin/bin/../../lib/gcc/pic32c/8.3.1/../../../../pic32c/lib/thumb/v7e-m+dp/hard\libc-musl.a(__pop_float.o)
 .bss           0x00000000        0x0 c:/program files/microchip/xc32/v4.20/bin/bin/../../lib/gcc/pic32c/8.3.1/../../../../pic32c/lib/thumb/v7e-m+dp/hard\libc-musl.a(__pop_float.o)
 .xc_stack_usage
                0x00000000       0x19 c:/program files/microchip/xc32/v4.20/bin/bin/../../lib/gcc/pic32c/8.3.1/../../../../pic32c/lib/thumb/v7e-m+dp/hard\libc-musl.a(__pop_float.o)
 .xc_stack_usage.hdr
                0x00000000        0xe c:/program files/microchip/xc32/v4.20/bin/bin/../../lib/gcc/pic32c/8.3.1/../../../../pic32c/lib/thumb/v7e-m+dp/hard\libc-musl.a(__pop_float.o)
 .text          0x00000000        0x0 c:/program files/microchip/xc32/v4.20/bin/bin/../../lib/gcc/pic32c/8.3.1/../../../../pic32c/lib/thumb/v7e-m+dp/hard\libc-musl.a(__pop_int.o)
 .data          0x00000000        0x0 c:/program files/microchip/xc32/v4.20/bin/bin/../../lib/gcc/pic32c/8.3.1/../../../../pic32c/lib/thumb/v7e-m+dp/hard\libc-musl.a(__pop_int.o)
 .bss           0x00000000        0x0 c:/program files/microchip/xc32/v4.20/bin/bin/../../lib/gcc/pic32c/8.3.1/../../../../pic32c/lib/thumb/v7e-m+dp/hard\libc-musl.a(__pop_int.o)
 .xc_stack_usage
                0x00000000       0x17 c:/program files/microchip/xc32/v4.20/bin/bin/../../lib/gcc/pic32c/8.3.1/../../../../pic32c/lib/thumb/v7e-m+dp/hard\libc-musl.a(__pop_int.o)
 .xc_stack_usage.hdr
                0x00000000        0xe c:/program files/microchip/xc32/v4.20/bin/bin/../../lib/gcc/pic32c/8.3.1/../../../../pic32c/lib/thumb/v7e-m+dp/hard\libc-musl.a(__pop_int.o)
 .text          0x00000000        0x0 c:/program files/microchip/xc32/v4.20/bin/bin/../../lib/gcc/pic32c/8.3.1/../../../../pic32c/lib/thumb/v7e-m+dp/hard\libc-musl.a(__pop_ptr.o)
 .data          0x00000000        0x0 c:/program files/microchip/xc32/v4.20/bin/bin/../../lib/gcc/pic32c/8.3.1/../../../../pic32c/lib/thumb/v7e-m+dp/hard\libc-musl.a(__pop_ptr.o)
 .bss           0x00000000        0x0 c:/program files/microchip/xc32/v4.20/bin/bin/../../lib/gcc/pic32c/8.3.1/../../../../pic32c/lib/thumb/v7e-m+dp/hard\libc-musl.a(__pop_ptr.o)
 .xc_stack_usage
                0x00000000       0x17 c:/program files/microchip/xc32/v4.20/bin/bin/../../lib/gcc/pic32c/8.3.1/../../../../pic32c/lib/thumb/v7e-m+dp/hard\libc-musl.a(__pop_ptr.o)
 .xc_stack_usage.hdr
                0x00000000        0xe c:/program files/microchip/xc32/v4.20/bin/bin/../../lib/gcc/pic32c/8.3.1/../../../../pic32c/lib/thumb/v7e-m+dp/hard\libc-musl.a(__pop_ptr.o)
 .text          0x00000000        0x0 c:/program files/microchip/xc32/v4.20/bin/bin/../../lib/gcc/pic32c/8.3.1/../../../../pic32c/lib/thumb/v7e-m+dp/hard\libc-musl.a(__printf_core.o)
 .data          0x00000000        0x0 c:/program files/microchip/xc32/v4.20/bin/bin/../../lib/gcc/pic32c/8.3.1/../../../../pic32c/lib/thumb/v7e-m+dp/hard\libc-musl.a(__printf_core.o)
 .bss           0x00000000        0x0 c:/program files/microchip/xc32/v4.20/bin/bin/../../lib/gcc/pic32c/8.3.1/../../../../pic32c/lib/thumb/v7e-m+dp/hard\libc-musl.a(__printf_core.o)
 .xc_stack_usage
                0x00000000       0xaf c:/program files/microchip/xc32/v4.20/bin/bin/../../lib/gcc/pic32c/8.3.1/../../../../pic32c/lib/thumb/v7e-m+dp/hard\libc-musl.a(__printf_core.o)
 .text.__dummy_fmt3
                0x00000000        0x4 c:/program files/microchip/xc32/v4.20/bin/bin/../../lib/gcc/pic32c/8.3.1/../../../../pic32c/lib/thumb/v7e-m+dp/hard\libc-musl.a(__printf_core.o)
 .text.__dummy_fmt4
                0x00000000        0x4 c:/program files/microchip/xc32/v4.20/bin/bin/../../lib/gcc/pic32c/8.3.1/../../../../pic32c/lib/thumb/v7e-m+dp/hard\libc-musl.a(__printf_core.o)
 .text.__dummy_fmts
                0x00000000        0x4 c:/program files/microchip/xc32/v4.20/bin/bin/../../lib/gcc/pic32c/8.3.1/../../../../pic32c/lib/thumb/v7e-m+dp/hard\libc-musl.a(__printf_core.o)
 .xc_stack_usage.hdr
                0x00000000        0xe c:/program files/microchip/xc32/v4.20/bin/bin/../../lib/gcc/pic32c/8.3.1/../../../../pic32c/lib/thumb/v7e-m+dp/hard\libc-musl.a(__printf_core.o)
 .text          0x00000000        0x0 c:/program files/microchip/xc32/v4.20/bin/bin/../../lib/gcc/pic32c/8.3.1/../../../../pic32c/lib/thumb/v7e-m+dp/hard\libc-musl.a(atoi.o)
 .data          0x00000000        0x0 c:/program files/microchip/xc32/v4.20/bin/bin/../../lib/gcc/pic32c/8.3.1/../../../../pic32c/lib/thumb/v7e-m+dp/hard\libc-musl.a(atoi.o)
 .bss           0x00000000        0x0 c:/program files/microchip/xc32/v4.20/bin/bin/../../lib/gcc/pic32c/8.3.1/../../../../pic32c/lib/thumb/v7e-m+dp/hard\libc-musl.a(atoi.o)
 .xc_stack_usage
                0x00000000       0x12 c:/program files/microchip/xc32/v4.20/bin/bin/../../lib/gcc/pic32c/8.3.1/../../../../pic32c/lib/thumb/v7e-m+dp/hard\libc-musl.a(atoi.o)
 .xc_stack_usage.hdr
                0x00000000        0xe c:/program files/microchip/xc32/v4.20/bin/bin/../../lib/gcc/pic32c/8.3.1/../../../../pic32c/lib/thumb/v7e-m+dp/hard\libc-musl.a(atoi.o)
 .text          0x00000000        0x0 c:/program files/microchip/xc32/v4.20/bin/bin/../../lib/gcc/pic32c/8.3.1/../../../../pic32c/lib/thumb/v7e-m+dp/hard\libc-musl.a(tolower.o)
 .data          0x00000000        0x0 c:/program files/microchip/xc32/v4.20/bin/bin/../../lib/gcc/pic32c/8.3.1/../../../../pic32c/lib/thumb/v7e-m+dp/hard\libc-musl.a(tolower.o)
 .bss           0x00000000        0x0 c:/program files/microchip/xc32/v4.20/bin/bin/../../lib/gcc/pic32c/8.3.1/../../../../pic32c/lib/thumb/v7e-m+dp/hard\libc-musl.a(tolower.o)
 .xc_stack_usage
                0x00000000       0x2e c:/program files/microchip/xc32/v4.20/bin/bin/../../lib/gcc/pic32c/8.3.1/../../../../pic32c/lib/thumb/v7e-m+dp/hard\libc-musl.a(tolower.o)
 .text.__tolower_l
                0x00000000        0x4 c:/program files/microchip/xc32/v4.20/bin/bin/../../lib/gcc/pic32c/8.3.1/../../../../pic32c/lib/thumb/v7e-m+dp/hard\libc-musl.a(tolower.o)
 .xc_stack_usage.hdr
                0x00000000        0xe c:/program files/microchip/xc32/v4.20/bin/bin/../../lib/gcc/pic32c/8.3.1/../../../../pic32c/lib/thumb/v7e-m+dp/hard\libc-musl.a(tolower.o)
 .text          0x00000000        0x0 c:/program files/microchip/xc32/v4.20/bin/bin/../../lib/gcc/pic32c/8.3.1/../../../../pic32c/lib/thumb/v7e-m+dp/hard\libc-musl.a(__fmt_a.o)
 .data          0x00000000        0x0 c:/program files/microchip/xc32/v4.20/bin/bin/../../lib/gcc/pic32c/8.3.1/../../../../pic32c/lib/thumb/v7e-m+dp/hard\libc-musl.a(__fmt_a.o)
 .bss           0x00000000        0x0 c:/program files/microchip/xc32/v4.20/bin/bin/../../lib/gcc/pic32c/8.3.1/../../../../pic32c/lib/thumb/v7e-m+dp/hard\libc-musl.a(__fmt_a.o)
 .xc_stack_usage
                0x00000000       0x15 c:/program files/microchip/xc32/v4.20/bin/bin/../../lib/gcc/pic32c/8.3.1/../../../../pic32c/lib/thumb/v7e-m+dp/hard\libc-musl.a(__fmt_a.o)
 .xc_stack_usage.hdr
                0x00000000        0xe c:/program files/microchip/xc32/v4.20/bin/bin/../../lib/gcc/pic32c/8.3.1/../../../../pic32c/lib/thumb/v7e-m+dp/hard\libc-musl.a(__fmt_a.o)
 .text          0x00000000        0x0 c:/program files/microchip/xc32/v4.20/bin/bin/../../lib/gcc/pic32c/8.3.1/../../../../pic32c/lib/thumb/v7e-m+dp/hard\libc-musl.a(__fmt_d.o)
 .data          0x00000000        0x0 c:/program files/microchip/xc32/v4.20/bin/bin/../../lib/gcc/pic32c/8.3.1/../../../../pic32c/lib/thumb/v7e-m+dp/hard\libc-musl.a(__fmt_d.o)
 .bss           0x00000000        0x0 c:/program files/microchip/xc32/v4.20/bin/bin/../../lib/gcc/pic32c/8.3.1/../../../../pic32c/lib/thumb/v7e-m+dp/hard\libc-musl.a(__fmt_d.o)
 .xc_stack_usage
                0x00000000       0x15 c:/program files/microchip/xc32/v4.20/bin/bin/../../lib/gcc/pic32c/8.3.1/../../../../pic32c/lib/thumb/v7e-m+dp/hard\libc-musl.a(__fmt_d.o)
 .xc_stack_usage.hdr
                0x00000000        0xe c:/program files/microchip/xc32/v4.20/bin/bin/../../lib/gcc/pic32c/8.3.1/../../../../pic32c/lib/thumb/v7e-m+dp/hard\libc-musl.a(__fmt_d.o)
 .text          0x00000000        0x0 c:/program files/microchip/xc32/v4.20/bin/bin/../../lib/gcc/pic32c/8.3.1/../../../../pic32c/lib/thumb/v7e-m+dp/hard\libc-musl.a(__fmt_fp.o)
 .data          0x00000000        0x0 c:/program files/microchip/xc32/v4.20/bin/bin/../../lib/gcc/pic32c/8.3.1/../../../../pic32c/lib/thumb/v7e-m+dp/hard\libc-musl.a(__fmt_fp.o)
 .bss           0x00000000        0x0 c:/program files/microchip/xc32/v4.20/bin/bin/../../lib/gcc/pic32c/8.3.1/../../../../pic32c/lib/thumb/v7e-m+dp/hard\libc-musl.a(__fmt_fp.o)
 .xc_stack_usage
                0x00000000       0x16 c:/program files/microchip/xc32/v4.20/bin/bin/../../lib/gcc/pic32c/8.3.1/../../../../pic32c/lib/thumb/v7e-m+dp/hard\libc-musl.a(__fmt_fp.o)
 .xc_stack_usage.hdr
                0x00000000        0xe c:/program files/microchip/xc32/v4.20/bin/bin/../../lib/gcc/pic32c/8.3.1/../../../../pic32c/lib/thumb/v7e-m+dp/hard\libc-musl.a(__fmt_fp.o)
 .text          0x00000000        0x0 c:/program files/microchip/xc32/v4.20/bin/bin/../../lib/gcc/pic32c/8.3.1/../../../../pic32c/lib/thumb/v7e-m+dp/hard\libc-musl.a(__fmt_o.o)
 .data          0x00000000        0x0 c:/program files/microchip/xc32/v4.20/bin/bin/../../lib/gcc/pic32c/8.3.1/../../../../pic32c/lib/thumb/v7e-m+dp/hard\libc-musl.a(__fmt_o.o)
 .bss           0x00000000        0x0 c:/program files/microchip/xc32/v4.20/bin/bin/../../lib/gcc/pic32c/8.3.1/../../../../pic32c/lib/thumb/v7e-m+dp/hard\libc-musl.a(__fmt_o.o)
 .xc_stack_usage
                0x00000000       0x15 c:/program files/microchip/xc32/v4.20/bin/bin/../../lib/gcc/pic32c/8.3.1/../../../../pic32c/lib/thumb/v7e-m+dp/hard\libc-musl.a(__fmt_o.o)
 .xc_stack_usage.hdr
                0x00000000        0xe c:/program files/microchip/xc32/v4.20/bin/bin/../../lib/gcc/pic32c/8.3.1/../../../../pic32c/lib/thumb/v7e-m+dp/hard\libc-musl.a(__fmt_o.o)
 .text          0x00000000        0x0 c:/program files/microchip/xc32/v4.20/bin/bin/../../lib/gcc/pic32c/8.3.1/../../../../pic32c/lib/thumb/v7e-m+dp/hard\libc-musl.a(__fmt_s.o)
 .data          0x00000000        0x0 c:/program files/microchip/xc32/v4.20/bin/bin/../../lib/gcc/pic32c/8.3.1/../../../../pic32c/lib/thumb/v7e-m+dp/hard\libc-musl.a(__fmt_s.o)
 .bss           0x00000000        0x0 c:/program files/microchip/xc32/v4.20/bin/bin/../../lib/gcc/pic32c/8.3.1/../../../../pic32c/lib/thumb/v7e-m+dp/hard\libc-musl.a(__fmt_s.o)
 .xc_stack_usage
                0x00000000       0x15 c:/program files/microchip/xc32/v4.20/bin/bin/../../lib/gcc/pic32c/8.3.1/../../../../pic32c/lib/thumb/v7e-m+dp/hard\libc-musl.a(__fmt_s.o)
 .xc_stack_usage.hdr
                0x00000000        0xe c:/program files/microchip/xc32/v4.20/bin/bin/../../lib/gcc/pic32c/8.3.1/../../../../pic32c/lib/thumb/v7e-m+dp/hard\libc-musl.a(__fmt_s.o)
 .text          0x00000000        0x0 c:/program files/microchip/xc32/v4.20/bin/bin/../../lib/gcc/pic32c/8.3.1/../../../../pic32c/lib/thumb/v7e-m+dp/hard\libc-musl.a(__fmt_u.o)
 .data          0x00000000        0x0 c:/program files/microchip/xc32/v4.20/bin/bin/../../lib/gcc/pic32c/8.3.1/../../../../pic32c/lib/thumb/v7e-m+dp/hard\libc-musl.a(__fmt_u.o)
 .bss           0x00000000        0x0 c:/program files/microchip/xc32/v4.20/bin/bin/../../lib/gcc/pic32c/8.3.1/../../../../pic32c/lib/thumb/v7e-m+dp/hard\libc-musl.a(__fmt_u.o)
 .xc_stack_usage
                0x00000000       0x2a c:/program files/microchip/xc32/v4.20/bin/bin/../../lib/gcc/pic32c/8.3.1/../../../../pic32c/lib/thumb/v7e-m+dp/hard\libc-musl.a(__fmt_u.o)
 .xc_stack_usage.hdr
                0x00000000        0xe c:/program files/microchip/xc32/v4.20/bin/bin/../../lib/gcc/pic32c/8.3.1/../../../../pic32c/lib/thumb/v7e-m+dp/hard\libc-musl.a(__fmt_u.o)
 .text          0x00000000        0x0 c:/program files/microchip/xc32/v4.20/bin/bin/../../lib/gcc/pic32c/8.3.1/../../../../pic32c/lib/thumb/v7e-m+dp/hard\libc-musl.a(__fmt_x.o)
 .data          0x00000000        0x0 c:/program files/microchip/xc32/v4.20/bin/bin/../../lib/gcc/pic32c/8.3.1/../../../../pic32c/lib/thumb/v7e-m+dp/hard\libc-musl.a(__fmt_x.o)
 .bss           0x00000000        0x0 c:/program files/microchip/xc32/v4.20/bin/bin/../../lib/gcc/pic32c/8.3.1/../../../../pic32c/lib/thumb/v7e-m+dp/hard\libc-musl.a(__fmt_x.o)
 .xc_stack_usage
                0x00000000       0x15 c:/program files/microchip/xc32/v4.20/bin/bin/../../lib/gcc/pic32c/8.3.1/../../../../pic32c/lib/thumb/v7e-m+dp/hard\libc-musl.a(__fmt_x.o)
 .xc_stack_usage.hdr
                0x00000000        0xe c:/program files/microchip/xc32/v4.20/bin/bin/../../lib/gcc/pic32c/8.3.1/../../../../pic32c/lib/thumb/v7e-m+dp/hard\libc-musl.a(__fmt_x.o)
 .text          0x00000000        0x0 c:/program files/microchip/xc32/v4.20/bin/bin/../../lib/gcc/pic32c/8.3.1/../../../../pic32c/lib/thumb/v7e-m+dp/hard\libc-musl.a(strcpy.o)
 .data          0x00000000        0x0 c:/program files/microchip/xc32/v4.20/bin/bin/../../lib/gcc/pic32c/8.3.1/../../../../pic32c/lib/thumb/v7e-m+dp/hard\libc-musl.a(strcpy.o)
 .bss           0x00000000        0x0 c:/program files/microchip/xc32/v4.20/bin/bin/../../lib/gcc/pic32c/8.3.1/../../../../pic32c/lib/thumb/v7e-m+dp/hard\libc-musl.a(strcpy.o)
 .xc_stack_usage
                0x00000000       0x14 c:/program files/microchip/xc32/v4.20/bin/bin/../../lib/gcc/pic32c/8.3.1/../../../../pic32c/lib/thumb/v7e-m+dp/hard\libc-musl.a(strcpy.o)
 .xc_stack_usage.hdr
                0x00000000        0xe c:/program files/microchip/xc32/v4.20/bin/bin/../../lib/gcc/pic32c/8.3.1/../../../../pic32c/lib/thumb/v7e-m+dp/hard\libc-musl.a(strcpy.o)
 .text          0x00000000        0x0 c:/program files/microchip/xc32/v4.20/bin/bin/../../lib/gcc/pic32c/8.3.1/../../../../pic32c/lib/thumb/v7e-m+dp/hard\libc-musl.a(toupper.o)
 .data          0x00000000        0x0 c:/program files/microchip/xc32/v4.20/bin/bin/../../lib/gcc/pic32c/8.3.1/../../../../pic32c/lib/thumb/v7e-m+dp/hard\libc-musl.a(toupper.o)
 .bss           0x00000000        0x0 c:/program files/microchip/xc32/v4.20/bin/bin/../../lib/gcc/pic32c/8.3.1/../../../../pic32c/lib/thumb/v7e-m+dp/hard\libc-musl.a(toupper.o)
 .xc_stack_usage
                0x00000000       0x2e c:/program files/microchip/xc32/v4.20/bin/bin/../../lib/gcc/pic32c/8.3.1/../../../../pic32c/lib/thumb/v7e-m+dp/hard\libc-musl.a(toupper.o)
 .text.__toupper_l
                0x00000000        0x4 c:/program files/microchip/xc32/v4.20/bin/bin/../../lib/gcc/pic32c/8.3.1/../../../../pic32c/lib/thumb/v7e-m+dp/hard\libc-musl.a(toupper.o)
 .xc_stack_usage.hdr
                0x00000000        0xe c:/program files/microchip/xc32/v4.20/bin/bin/../../lib/gcc/pic32c/8.3.1/../../../../pic32c/lib/thumb/v7e-m+dp/hard\libc-musl.a(toupper.o)
 .text          0x00000000        0x0 c:/program files/microchip/xc32/v4.20/bin/bin/../../lib/gcc/pic32c/8.3.1/../../../../pic32c/lib/thumb/v7e-m+dp/hard\libc-musl.a(stpcpy.o)
 .data          0x00000000        0x0 c:/program files/microchip/xc32/v4.20/bin/bin/../../lib/gcc/pic32c/8.3.1/../../../../pic32c/lib/thumb/v7e-m+dp/hard\libc-musl.a(stpcpy.o)
 .bss           0x00000000        0x0 c:/program files/microchip/xc32/v4.20/bin/bin/../../lib/gcc/pic32c/8.3.1/../../../../pic32c/lib/thumb/v7e-m+dp/hard\libc-musl.a(stpcpy.o)
 .xc_stack_usage
                0x00000000       0x14 c:/program files/microchip/xc32/v4.20/bin/bin/../../lib/gcc/pic32c/8.3.1/../../../../pic32c/lib/thumb/v7e-m+dp/hard\libc-musl.a(stpcpy.o)
 .xc_stack_usage.hdr
                0x00000000        0xe c:/program files/microchip/xc32/v4.20/bin/bin/../../lib/gcc/pic32c/8.3.1/../../../../pic32c/lib/thumb/v7e-m+dp/hard\libc-musl.a(stpcpy.o)
 .xc_stack_usage.hdr
                0x00000000        0xe c:/program files/microchip/xc32/v4.20/bin/bin/../../lib/gcc/pic32c/8.3.1/../../../../pic32c/lib/thumb/v7e-m+dp/hard\libm-emfloat.a(floor.o)
 .xc_stack_usage
                0x00000000       0x13 c:/program files/microchip/xc32/v4.20/bin/bin/../../lib/gcc/pic32c/8.3.1/../../../../pic32c/lib/thumb/v7e-m+dp/hard\libm-emfloat.a(floor.o)
 .data          0x00000000        0x0 c:/program files/microchip/xc32/v4.20/bin/bin/../../lib/gcc/pic32c/8.3.1/thumb/v7e-m+dp/hard\libgcc.a(_aeabi_uldivmod.o)
 .bss           0x00000000        0x0 c:/program files/microchip/xc32/v4.20/bin/bin/../../lib/gcc/pic32c/8.3.1/thumb/v7e-m+dp/hard\libgcc.a(_aeabi_uldivmod.o)
 .xc_stack_usage.hdr
                0x00000000        0xe c:/program files/microchip/xc32/v4.20/bin/bin/../../lib/gcc/pic32c/8.3.1/thumb/v7e-m+dp/hard\libgcc.a(_aeabi_uldivmod.o)
 .xc_stack_usage
                0x00000000       0x1e c:/program files/microchip/xc32/v4.20/bin/bin/../../lib/gcc/pic32c/8.3.1/thumb/v7e-m+dp/hard\libgcc.a(_aeabi_uldivmod.o)
 .data          0x00000000        0x0 c:/program files/microchip/xc32/v4.20/bin/bin/../../lib/gcc/pic32c/8.3.1/thumb/v7e-m+dp/hard\libgcc.a(_udivmoddi4.o)
 .bss           0x00000000        0x0 c:/program files/microchip/xc32/v4.20/bin/bin/../../lib/gcc/pic32c/8.3.1/thumb/v7e-m+dp/hard\libgcc.a(_udivmoddi4.o)
 .xc_stack_usage
                0x00000000       0x1a c:/program files/microchip/xc32/v4.20/bin/bin/../../lib/gcc/pic32c/8.3.1/thumb/v7e-m+dp/hard\libgcc.a(_udivmoddi4.o)
 .ARM.extab     0x00000000        0x0 c:/program files/microchip/xc32/v4.20/bin/bin/../../lib/gcc/pic32c/8.3.1/thumb/v7e-m+dp/hard\libgcc.a(_udivmoddi4.o)
 .xc_stack_usage.hdr
                0x00000000        0xe c:/program files/microchip/xc32/v4.20/bin/bin/../../lib/gcc/pic32c/8.3.1/thumb/v7e-m+dp/hard\libgcc.a(_udivmoddi4.o)
 .data          0x00000000        0x0 c:/program files/microchip/xc32/v4.20/bin/bin/../../lib/gcc/pic32c/8.3.1/thumb/v7e-m+dp/hard\libgcc.a(_dvmd_tls.o)
 .bss           0x00000000        0x0 c:/program files/microchip/xc32/v4.20/bin/bin/../../lib/gcc/pic32c/8.3.1/thumb/v7e-m+dp/hard\libgcc.a(_dvmd_tls.o)
 .xc_stack_usage.hdr
                0x00000000        0xe c:/program files/microchip/xc32/v4.20/bin/bin/../../lib/gcc/pic32c/8.3.1/thumb/v7e-m+dp/hard\libgcc.a(_dvmd_tls.o)
 .xc_stack_usage
                0x00000000       0x36 c:/program files/microchip/xc32/v4.20/bin/bin/../../lib/gcc/pic32c/8.3.1/thumb/v7e-m+dp/hard\libgcc.a(_dvmd_tls.o)
 .text          0x00000000        0x0 c:/program files/microchip/xc32/v4.20/bin/bin/../../lib/gcc/pic32c/8.3.1/thumb/v7e-m+dp/hard/crtend.o
 .data          0x00000000        0x0 c:/program files/microchip/xc32/v4.20/bin/bin/../../lib/gcc/pic32c/8.3.1/thumb/v7e-m+dp/hard/crtend.o
 .bss           0x00000000        0x0 c:/program files/microchip/xc32/v4.20/bin/bin/../../lib/gcc/pic32c/8.3.1/thumb/v7e-m+dp/hard/crtend.o
 .eh_frame      0x00000000        0x4 c:/program files/microchip/xc32/v4.20/bin/bin/../../lib/gcc/pic32c/8.3.1/thumb/v7e-m+dp/hard/crtend.o
 .xc_stack_usage.hdr
                0x00000000        0xe c:/program files/microchip/xc32/v4.20/bin/bin/../../lib/gcc/pic32c/8.3.1/thumb/v7e-m+dp/hard/crtend.o
 .comment       0x00000000       0x2c c:/program files/microchip/xc32/v4.20/bin/bin/../../lib/gcc/pic32c/8.3.1/thumb/v7e-m+dp/hard/crtend.o
 .ARM.attributes
                0x00000000       0x30 c:/program files/microchip/xc32/v4.20/bin/bin/../../lib/gcc/pic32c/8.3.1/thumb/v7e-m+dp/hard/crtend.o
 .text          0x00000000        0x0 c:/program files/microchip/xc32/v4.20/bin/bin/../../lib/gcc/pic32c/8.3.1/thumb/v7e-m+dp/hard/crtn.o
 .data          0x00000000        0x0 c:/program files/microchip/xc32/v4.20/bin/bin/../../lib/gcc/pic32c/8.3.1/thumb/v7e-m+dp/hard/crtn.o
 .bss           0x00000000        0x0 c:/program files/microchip/xc32/v4.20/bin/bin/../../lib/gcc/pic32c/8.3.1/thumb/v7e-m+dp/hard/crtn.o
 .xc_stack_usage.hdr
                0x00000000        0xe c:/program files/microchip/xc32/v4.20/bin/bin/../../lib/gcc/pic32c/8.3.1/thumb/v7e-m+dp/hard/crtn.o

Memory Configuration

Name             Origin             Length             Attributes
rom              0x00400000         0x00200000         xrl
ram              0x20400000         0x00060000         xw !r
itcm             0x00000000         0x00000000         xw
dtcm             0x20000000         0x00000000         xw !r
*default*        0x00000000         0xffffffff

Linker script and memory map

LOAD c:/program files/microchip/xc32/v4.20/bin/bin/../../lib/gcc/pic32c/8.3.1/thumb/v7e-m+dp/hard/crti.o
LOAD c:/program files/microchip/xc32/v4.20/bin/bin/../../lib/gcc/pic32c/8.3.1/thumb/v7e-m+dp/hard/crtbegin.o
LOAD build/sam_e70_xult/production/_ext/917764137/bsp.o
LOAD build/sam_e70_xult/production/_ext/1055500827/plib_clk.o
LOAD build/sam_e70_xult/production/_ext/1055499099/plib_efc.o
LOAD build/sam_e70_xult/production/_ext/1639550079/plib_nvic.o
LOAD build/sam_e70_xult/production/_ext/1055488423/plib_pio.o
LOAD build/sam_e70_xult/production/_ext/1639738731/plib_uart2.o
LOAD build/sam_e70_xult/production/_ext/1639738731/plib_uart1.o
LOAD build/sam_e70_xult/production/_ext/707186936/plib_usart1.o
LOAD build/sam_e70_xult/production/_ext/1518761459/xc32_monitor.o
LOAD build/sam_e70_xult/production/_ext/876653320/sys_cache.o
LOAD build/sam_e70_xult/production/_ext/1763620194/sys_debug.o
LOAD build/sam_e70_xult/production/_ext/1728594169/initialization.o
LOAD build/sam_e70_xult/production/_ext/1728594169/interrupts.o
LOAD build/sam_e70_xult/production/_ext/1728594169/exceptions.o
LOAD build/sam_e70_xult/production/_ext/1728594169/startup_xc32.o
LOAD build/sam_e70_xult/production/_ext/1728594169/libc_syscalls.o
LOAD build/sam_e70_xult/production/_ext/1360937237/main.o
LOAD build/sam_e70_xult/production/_ext/1639147296/plib_afec0.o
LOAD build/sam_e70_xult/production/_ext/1639147296/plib_afec1.o
LOAD build/sam_e70_xult/production/_ext/865331892/plib_tc0.o
LOAD build/sam_e70_xult/production/_ext/1639501792/plib_mcan0.o
LOAD build/sam_e70_xult/production/_ext/766002106/sys_int.o
LOAD build/sam_e70_xult/production/_ext/1953779166/sys_console.o
LOAD build/sam_e70_xult/production/_ext/1360937237/app.o
LOAD build/sam_e70_xult/production/_ext/1728594169/tasks.o
LOAD build/sam_e70_xult/production/_ext/1953779166/sys_console_uart.o
                0x00000001                __MPLAB_BUILD = 0x1
                0x00600000                __rom_end = (ORIGIN (rom) + LENGTH (rom))
                0x20460000                __ram_end = (ORIGIN (ram) + LENGTH (ram))

.vectors        0x00400000      0x168
                0x00400000                . = ALIGN (0x4)
                0x00400000                _sfixed = .
 *(.vectors .vectors.* .vectors_default .vectors_default.*)
 .vectors.exception_table
                0x00400000      0x168 build/sam_e70_xult/production/_ext/1728594169/interrupts.o
                0x00400000                exception_table
 *(.isr_vector)
 *(.reset*)
 *(.after_vectors)

.text           0x00400168       0x20
                0x00400168                . = ALIGN (0x4)
 *(.glue_7t)
 .glue_7t       0x00400168        0x0 linker stubs
 *(.glue_7)
 .glue_7        0x00400168        0x0 linker stubs
 *(.gnu.linkonce.r.*)
 *(.ARM.extab* .gnu.linkonce.armextab.*)
                0x00400168                . = ALIGN (0x4)
 *(.init)
 .init          0x00400168        0x4 c:/program files/microchip/xc32/v4.20/bin/bin/../../lib/gcc/pic32c/8.3.1/thumb/v7e-m+dp/hard/crti.o
                0x00400168                _init
 .init          0x0040016c        0x8 c:/program files/microchip/xc32/v4.20/bin/bin/../../lib/gcc/pic32c/8.3.1/thumb/v7e-m+dp/hard/crtn.o
                0x00400174                . = ALIGN (0x4)
                0x00400174                __preinit_array_start = .
 *(.preinit_array)
                0x00400174                __preinit_array_end = .
                0x00400174                . = ALIGN (0x4)
                0x00400174                __init_array_start = .
 *(SORT_BY_NAME(.init_array.*))
 *(.init_array)
 .init_array    0x00400174        0x4 c:/program files/microchip/xc32/v4.20/bin/bin/../../lib/gcc/pic32c/8.3.1/thumb/v7e-m+dp/hard/crtbegin.o
                0x00400178                __init_array_end = .
                0x00400178                . = ALIGN (0x4)
 *crtbegin.o(.ctors)
 *(EXCLUDE_FILE(*crtend.o) .ctors)
 *(SORT_BY_NAME(.ctors.*))
 *crtend.o(.ctors)
                0x00400178                . = ALIGN (0x4)
 *(.fini)
 .fini          0x00400178        0x4 c:/program files/microchip/xc32/v4.20/bin/bin/../../lib/gcc/pic32c/8.3.1/thumb/v7e-m+dp/hard/crti.o
                0x00400178                _fini
 .fini          0x0040017c        0x8 c:/program files/microchip/xc32/v4.20/bin/bin/../../lib/gcc/pic32c/8.3.1/thumb/v7e-m+dp/hard/crtn.o
                0x00400184                . = ALIGN (0x4)
                0x00400184                __fini_array_start = .
 *(.fini_array)
 .fini_array    0x00400184        0x4 c:/program files/microchip/xc32/v4.20/bin/bin/../../lib/gcc/pic32c/8.3.1/thumb/v7e-m+dp/hard/crtbegin.o
 *(SORT_BY_NAME(.fini_array.*))
                0x00400188                __fini_array_end = .
 *crtbegin.o(.dtors)
 *(EXCLUDE_FILE(*crtend.o) .dtors)
 *(SORT_BY_NAME(.dtors.*))
 *crtend.o(.dtors)
                0x00400188                . = ALIGN (0x4)
                0x00400188                _efixed = .
                [!provide]                PROVIDE (__exidx_start = .)

.ARM.exidx      0x00400188        0x8
 *(.ARM.exidx* .gnu.linkonce.armexidx.*)
 .ARM.exidx     0x00400188        0x8 c:/program files/microchip/xc32/v4.20/bin/bin/../../lib/gcc/pic32c/8.3.1/thumb/v7e-m+dp/hard\libgcc.a(_udivmoddi4.o)
                [!provide]                PROVIDE (__exidx_end = .)
                0x00400190                . = ALIGN (0x4)
                0x00400190                _etext = .

.bss            0x20400000        0x0
                0x20400000                . = ALIGN (0x4)
                0x20400000                __bss_start__ = .
                0x20400000                _sbss = .
                0x20400000                _szero = .
 *(COMMON)
                0x20400000                . = ALIGN (0x4)
                0x20400000                __bss_end__ = .
                0x20400000                _ebss = .
                0x20400000                _ezero = .
                0x20400000                . = ALIGN (0x4)
                0x20400000                _end = .
                0x2045ffff                _ram_end_ = ((ORIGIN (ram) + LENGTH (ram)) - 0x1)
                0x00000200                _min_heap_size = 0x200
START GROUP
LOAD c:/program files/microchip/xc32/v4.20/bin/bin/../../lib/gcc/pic32c/8.3.1/../../../../pic32c/lib/thumb/v7e-m+dp/hard\libpic32c.a
LOAD c:/program files/microchip/xc32/v4.20/bin/bin/../../lib/gcc/pic32c/8.3.1/../../../../pic32c/lib/thumb/v7e-m+dp/hard\libm-emfloat.a
LOAD c:/program files/microchip/xc32/v4.20/bin/bin/../../lib/gcc/pic32c/8.3.1/../../../../pic32c/lib/thumb/v7e-m+dp/hard\libc-musl.a
LOAD c:/program files/microchip/xc32/v4.20/bin/bin/../../lib/gcc/pic32c/8.3.1/../../../../pic32c/lib/thumb/v7e-m+dp/hard\libm-emfloat.a
LOAD c:/program files/microchip/xc32/v4.20/bin/bin/../../lib/gcc/pic32c/8.3.1/thumb/v7e-m+dp/hard\libgcc.a
END GROUP
LOAD c:/program files/microchip/xc32/v4.20/bin/bin/../../lib/gcc/pic32c/8.3.1/thumb/v7e-m+dp/hard/crtend.o
LOAD c:/program files/microchip/xc32/v4.20/bin/bin/../../lib/gcc/pic32c/8.3.1/thumb/v7e-m+dp/hard/crtn.o
OUTPUT(dist/sam_e70_xult/production/sam_e70_xult.X.production.elf elf32-littlearm)
LOAD stack
LOAD data_init

.ARM.attributes
                0x00000000       0x32
 .ARM.attributes
                0x00000000       0x1e c:/program files/microchip/xc32/v4.20/bin/bin/../../lib/gcc/pic32c/8.3.1/thumb/v7e-m+dp/hard/crti.o
 .ARM.attributes
                0x0000001e       0x32 c:/program files/microchip/xc32/v4.20/bin/bin/../../lib/gcc/pic32c/8.3.1/thumb/v7e-m+dp/hard/crtbegin.o
 .ARM.attributes
                0x00000050       0x32 build/sam_e70_xult/production/_ext/917764137/bsp.o
 .ARM.attributes
                0x00000082       0x32 build/sam_e70_xult/production/_ext/1055500827/plib_clk.o
 .ARM.attributes
                0x000000b4       0x32 build/sam_e70_xult/production/_ext/1055499099/plib_efc.o
 .ARM.attributes
                0x000000e6       0x32 build/sam_e70_xult/production/_ext/1639550079/plib_nvic.o
 .ARM.attributes
                0x00000118       0x32 build/sam_e70_xult/production/_ext/1055488423/plib_pio.o
 .ARM.attributes
                0x0000014a       0x32 build/sam_e70_xult/production/_ext/1639738731/plib_uart2.o
 .ARM.attributes
                0x0000017c       0x32 build/sam_e70_xult/production/_ext/1639738731/plib_uart1.o
 .ARM.attributes
                0x000001ae       0x32 build/sam_e70_xult/production/_ext/707186936/plib_usart1.o
 .ARM.attributes
                0x000001e0       0x32 build/sam_e70_xult/production/_ext/1763620194/sys_debug.o
 .ARM.attributes
                0x00000212       0x32 build/sam_e70_xult/production/_ext/1728594169/initialization.o
 .ARM.attributes
                0x00000244       0x32 build/sam_e70_xult/production/_ext/1728594169/interrupts.o
 .ARM.attributes
                0x00000276       0x32 build/sam_e70_xult/production/_ext/1728594169/exceptions.o
 .ARM.attributes
                0x000002a8       0x32 build/sam_e70_xult/production/_ext/1728594169/startup_xc32.o
 .ARM.attributes
                0x000002da       0x32 build/sam_e70_xult/production/_ext/1360937237/main.o
 .ARM.attributes
                0x0000030c       0x32 build/sam_e70_xult/production/_ext/1639147296/plib_afec0.o
 .ARM.attributes
                0x0000033e       0x32 build/sam_e70_xult/production/_ext/1639147296/plib_afec1.o
 .ARM.attributes
                0x00000370       0x32 build/sam_e70_xult/production/_ext/865331892/plib_tc0.o
 .ARM.attributes
                0x000003a2       0x32 build/sam_e70_xult/production/_ext/1639501792/plib_mcan0.o
 .ARM.attributes
                0x000003d4       0x32 build/sam_e70_xult/production/_ext/1953779166/sys_console.o
 .ARM.attributes
                0x00000406       0x32 build/sam_e70_xult/production/_ext/1360937237/app.o
 .ARM.attributes
                0x00000438       0x32 build/sam_e70_xult/production/_ext/1728594169/tasks.o
 .ARM.attributes
                0x0000046a       0x32 build/sam_e70_xult/production/_ext/1953779166/sys_console_uart.o
 .ARM.attributes
                0x0000049c       0x32 c:/program files/microchip/xc32/v4.20/bin/bin/../../lib/gcc/pic32c/8.3.1/../../../../pic32c/lib/thumb/v7e-m+dp/hard\libpic32c.a(data_init_wrapper.o)
 .ARM.attributes
                0x000004ce       0x32 c:/program files/microchip/xc32/v4.20/bin/bin/../../lib/gcc/pic32c/8.3.1/../../../../pic32c/lib/thumb/v7e-m+dp/hard\libpic32c.a(data_init_0_1.o)
 .ARM.attributes
                0x00000500       0x34 c:/program files/microchip/xc32/v4.20/bin/bin/../../lib/gcc/pic32c/8.3.1/../../../../pic32c/lib/thumb/v7e-m+dp/hard\libc-musl.a(__libc_start_main.o)
 .ARM.attributes
                0x00000534       0x32 c:/program files/microchip/xc32/v4.20/bin/bin/../../lib/gcc/pic32c/8.3.1/../../../../pic32c/lib/thumb/v7e-m+dp/hard\libc-musl.a(libc.o)
 .ARM.attributes
                0x00000566       0x34 c:/program files/microchip/xc32/v4.20/bin/bin/../../lib/gcc/pic32c/8.3.1/../../../../pic32c/lib/thumb/v7e-m+dp/hard\libc-musl.a(vsnprintf.o)
 .ARM.attributes
                0x0000059a       0x34 c:/program files/microchip/xc32/v4.20/bin/bin/../../lib/gcc/pic32c/8.3.1/../../../../pic32c/lib/thumb/v7e-m+dp/hard\libc-musl.a(memcpy.o)
 .ARM.attributes
                0x000005ce       0x34 c:/program files/microchip/xc32/v4.20/bin/bin/../../lib/gcc/pic32c/8.3.1/../../../../pic32c/lib/thumb/v7e-m+dp/hard\libc-musl.a(memset.o)
 .ARM.attributes
                0x00000602       0x34 c:/program files/microchip/xc32/v4.20/bin/bin/../../lib/gcc/pic32c/8.3.1/../../../../pic32c/lib/thumb/v7e-m+dp/hard\libc-musl.a(strlen.o)
 .ARM.attributes
                0x00000636       0x32 c:/program files/microchip/xc32/v4.20/bin/bin/../../lib/gcc/pic32c/8.3.1/../../../../pic32c/lib/thumb/v7e-m+dp/hard\libc-musl.a(__environ.o)
 .ARM.attributes
                0x00000668       0x32 c:/program files/microchip/xc32/v4.20/bin/bin/../../lib/gcc/pic32c/8.3.1/../../../../pic32c/lib/thumb/v7e-m+dp/hard\libc-musl.a(__errno_location.o)
 .ARM.attributes
                0x0000069a       0x34 c:/program files/microchip/xc32/v4.20/bin/bin/../../lib/gcc/pic32c/8.3.1/../../../../pic32c/lib/thumb/v7e-m+dp/hard\libc-musl.a(vfprintf.o)
 .ARM.attributes
                0x000006ce       0x34 c:/program files/microchip/xc32/v4.20/bin/bin/../../lib/gcc/pic32c/8.3.1/../../../../pic32c/lib/thumb/v7e-m+dp/hard\libc-musl.a(__pop_float.o)
 .ARM.attributes
                0x00000702       0x34 c:/program files/microchip/xc32/v4.20/bin/bin/../../lib/gcc/pic32c/8.3.1/../../../../pic32c/lib/thumb/v7e-m+dp/hard\libc-musl.a(__pop_int.o)
 .ARM.attributes
                0x00000736       0x34 c:/program files/microchip/xc32/v4.20/bin/bin/../../lib/gcc/pic32c/8.3.1/../../../../pic32c/lib/thumb/v7e-m+dp/hard\libc-musl.a(__pop_ptr.o)
 .ARM.attributes
                0x0000076a       0x34 c:/program files/microchip/xc32/v4.20/bin/bin/../../lib/gcc/pic32c/8.3.1/../../../../pic32c/lib/thumb/v7e-m+dp/hard\libc-musl.a(__printf_core.o)
 .ARM.attributes
                0x0000079e       0x34 c:/program files/microchip/xc32/v4.20/bin/bin/../../lib/gcc/pic32c/8.3.1/../../../../pic32c/lib/thumb/v7e-m+dp/hard\libc-musl.a(atoi.o)
 .ARM.attributes
                0x000007d2       0x34 c:/program files/microchip/xc32/v4.20/bin/bin/../../lib/gcc/pic32c/8.3.1/../../../../pic32c/lib/thumb/v7e-m+dp/hard\libc-musl.a(tolower.o)
 .ARM.attributes
                0x00000806       0x34 c:/program files/microchip/xc32/v4.20/bin/bin/../../lib/gcc/pic32c/8.3.1/../../../../pic32c/lib/thumb/v7e-m+dp/hard\libc-musl.a(__fmt_a.o)
 .ARM.attributes
                0x0000083a       0x34 c:/program files/microchip/xc32/v4.20/bin/bin/../../lib/gcc/pic32c/8.3.1/../../../../pic32c/lib/thumb/v7e-m+dp/hard\libc-musl.a(__fmt_d.o)
 .ARM.attributes
                0x0000086e       0x34 c:/program files/microchip/xc32/v4.20/bin/bin/../../lib/gcc/pic32c/8.3.1/../../../../pic32c/lib/thumb/v7e-m+dp/hard\libc-musl.a(__fmt_fp.o)
 .ARM.attributes
                0x000008a2       0x34 c:/program files/microchip/xc32/v4.20/bin/bin/../../lib/gcc/pic32c/8.3.1/../../../../pic32c/lib/thumb/v7e-m+dp/hard\libc-musl.a(__fmt_o.o)
 .ARM.attributes
                0x000008d6       0x34 c:/program files/microchip/xc32/v4.20/bin/bin/../../lib/gcc/pic32c/8.3.1/../../../../pic32c/lib/thumb/v7e-m+dp/hard\libc-musl.a(__fmt_s.o)
 .ARM.attributes
                0x0000090a       0x34 c:/program files/microchip/xc32/v4.20/bin/bin/../../lib/gcc/pic32c/8.3.1/../../../../pic32c/lib/thumb/v7e-m+dp/hard\libc-musl.a(__fmt_u.o)
 .ARM.attributes
                0x0000093e       0x34 c:/program files/microchip/xc32/v4.20/bin/bin/../../lib/gcc/pic32c/8.3.1/../../../../pic32c/lib/thumb/v7e-m+dp/hard\libc-musl.a(__fmt_x.o)
 .ARM.attributes
                0x00000972       0x34 c:/program files/microchip/xc32/v4.20/bin/bin/../../lib/gcc/pic32c/8.3.1/../../../../pic32c/lib/thumb/v7e-m+dp/hard\libc-musl.a(strcpy.o)
 .ARM.attributes
                0x000009a6       0x34 c:/program files/microchip/xc32/v4.20/bin/bin/../../lib/gcc/pic32c/8.3.1/../../../../pic32c/lib/thumb/v7e-m+dp/hard\libc-musl.a(toupper.o)
 .ARM.attributes
                0x000009da       0x34 c:/program files/microchip/xc32/v4.20/bin/bin/../../lib/gcc/pic32c/8.3.1/../../../../pic32c/lib/thumb/v7e-m+dp/hard\libc-musl.a(stpcpy.o)
 .ARM.attributes
                0x00000a0e       0x32 c:/program files/microchip/xc32/v4.20/bin/bin/../../lib/gcc/pic32c/8.3.1/../../../../pic32c/lib/thumb/v7e-m+dp/hard\libm-emfloat.a(floor.o)
 .ARM.attributes
                0x00000a40       0x1e c:/program files/microchip/xc32/v4.20/bin/bin/../../lib/gcc/pic32c/8.3.1/thumb/v7e-m+dp/hard\libgcc.a(_aeabi_uldivmod.o)
 .ARM.attributes
                0x00000a5e       0x32 c:/program files/microchip/xc32/v4.20/bin/bin/../../lib/gcc/pic32c/8.3.1/thumb/v7e-m+dp/hard\libgcc.a(_udivmoddi4.o)
 .ARM.attributes
                0x00000a90       0x1e c:/program files/microchip/xc32/v4.20/bin/bin/../../lib/gcc/pic32c/8.3.1/thumb/v7e-m+dp/hard\libgcc.a(_dvmd_tls.o)
 .ARM.attributes
                0x00000aae       0x1e c:/program files/microchip/xc32/v4.20/bin/bin/../../lib/gcc/pic32c/8.3.1/thumb/v7e-m+dp/hard/crtn.o

.comment        0x00000000       0x2b
 .comment       0x00000000       0x2b c:/program files/microchip/xc32/v4.20/bin/bin/../../lib/gcc/pic32c/8.3.1/thumb/v7e-m+dp/hard/crtbegin.o
                                 0x2c (size before relaxing)
 .comment       0x0000002b       0x2c build/sam_e70_xult/production/_ext/917764137/bsp.o
 .comment       0x0000002b       0x2c build/sam_e70_xult/production/_ext/1055500827/plib_clk.o
 .comment       0x0000002b       0x2c build/sam_e70_xult/production/_ext/1055499099/plib_efc.o
 .comment       0x0000002b       0x2c build/sam_e70_xult/production/_ext/1639550079/plib_nvic.o
 .comment       0x0000002b       0x2c build/sam_e70_xult/production/_ext/1055488423/plib_pio.o
 .comment       0x0000002b       0x2c build/sam_e70_xult/production/_ext/1639738731/plib_uart2.o
 .comment       0x0000002b       0x2c build/sam_e70_xult/production/_ext/1639738731/plib_uart1.o
 .comment       0x0000002b       0x2c build/sam_e70_xult/production/_ext/707186936/plib_usart1.o
 .comment       0x0000002b       0x2c build/sam_e70_xult/production/_ext/1763620194/sys_debug.o
 .comment       0x0000002b       0x2c build/sam_e70_xult/production/_ext/1728594169/initialization.o
 .comment       0x0000002b       0x2c build/sam_e70_xult/production/_ext/1728594169/interrupts.o
 .comment       0x0000002b       0x2c build/sam_e70_xult/production/_ext/1728594169/exceptions.o
 .comment       0x0000002b       0x2c build/sam_e70_xult/production/_ext/1728594169/startup_xc32.o
 .comment       0x0000002b       0x2c build/sam_e70_xult/production/_ext/1360937237/main.o
 .comment       0x0000002b       0x2c build/sam_e70_xult/production/_ext/1639147296/plib_afec0.o
 .comment       0x0000002b       0x2c build/sam_e70_xult/production/_ext/1639147296/plib_afec1.o
 .comment       0x0000002b       0x2c build/sam_e70_xult/production/_ext/865331892/plib_tc0.o
 .comment       0x0000002b       0x2c build/sam_e70_xult/production/_ext/1639501792/plib_mcan0.o
 .comment       0x0000002b       0x2c build/sam_e70_xult/production/_ext/1953779166/sys_console.o
 .comment       0x0000002b       0x2c build/sam_e70_xult/production/_ext/1360937237/app.o
 .comment       0x0000002b       0x2c build/sam_e70_xult/production/_ext/1728594169/tasks.o
 .comment       0x0000002b       0x2c build/sam_e70_xult/production/_ext/1953779166/sys_console_uart.o
 .comment       0x0000002b       0x2c c:/program files/microchip/xc32/v4.20/bin/bin/../../lib/gcc/pic32c/8.3.1/../../../../pic32c/lib/thumb/v7e-m+dp/hard\libpic32c.a(data_init_wrapper.o)
 .comment       0x0000002b       0x2c c:/program files/microchip/xc32/v4.20/bin/bin/../../lib/gcc/pic32c/8.3.1/../../../../pic32c/lib/thumb/v7e-m+dp/hard\libpic32c.a(data_init_0_1.o)
 .comment       0x0000002b       0x2c c:/program files/microchip/xc32/v4.20/bin/bin/../../lib/gcc/pic32c/8.3.1/../../../../pic32c/lib/thumb/v7e-m+dp/hard\libc-musl.a(__libc_start_main.o)
 .comment       0x0000002b       0x2c c:/program files/microchip/xc32/v4.20/bin/bin/../../lib/gcc/pic32c/8.3.1/../../../../pic32c/lib/thumb/v7e-m+dp/hard\libc-musl.a(libc.o)
 .comment       0x0000002b       0x2c c:/program files/microchip/xc32/v4.20/bin/bin/../../lib/gcc/pic32c/8.3.1/../../../../pic32c/lib/thumb/v7e-m+dp/hard\libc-musl.a(vsnprintf.o)
 .comment       0x0000002b       0x2c c:/program files/microchip/xc32/v4.20/bin/bin/../../lib/gcc/pic32c/8.3.1/../../../../pic32c/lib/thumb/v7e-m+dp/hard\libc-musl.a(memcpy.o)
 .comment       0x0000002b       0x2c c:/program files/microchip/xc32/v4.20/bin/bin/../../lib/gcc/pic32c/8.3.1/../../../../pic32c/lib/thumb/v7e-m+dp/hard\libc-musl.a(memset.o)
 .comment       0x0000002b       0x2c c:/program files/microchip/xc32/v4.20/bin/bin/../../lib/gcc/pic32c/8.3.1/../../../../pic32c/lib/thumb/v7e-m+dp/hard\libc-musl.a(strlen.o)
 .comment       0x0000002b       0x2c c:/program files/microchip/xc32/v4.20/bin/bin/../../lib/gcc/pic32c/8.3.1/../../../../pic32c/lib/thumb/v7e-m+dp/hard\libc-musl.a(__environ.o)
 .comment       0x0000002b       0x2c c:/program files/microchip/xc32/v4.20/bin/bin/../../lib/gcc/pic32c/8.3.1/../../../../pic32c/lib/thumb/v7e-m+dp/hard\libc-musl.a(__errno_location.o)
 .comment       0x0000002b       0x2c c:/program files/microchip/xc32/v4.20/bin/bin/../../lib/gcc/pic32c/8.3.1/../../../../pic32c/lib/thumb/v7e-m+dp/hard\libc-musl.a(vfprintf.o)
 .comment       0x0000002b       0x2c c:/program files/microchip/xc32/v4.20/bin/bin/../../lib/gcc/pic32c/8.3.1/../../../../pic32c/lib/thumb/v7e-m+dp/hard\libc-musl.a(__pop_float.o)
 .comment       0x0000002b       0x2c c:/program files/microchip/xc32/v4.20/bin/bin/../../lib/gcc/pic32c/8.3.1/../../../../pic32c/lib/thumb/v7e-m+dp/hard\libc-musl.a(__pop_int.o)
 .comment       0x0000002b       0x2c c:/program files/microchip/xc32/v4.20/bin/bin/../../lib/gcc/pic32c/8.3.1/../../../../pic32c/lib/thumb/v7e-m+dp/hard\libc-musl.a(__pop_ptr.o)
 .comment       0x0000002b       0x2c c:/program files/microchip/xc32/v4.20/bin/bin/../../lib/gcc/pic32c/8.3.1/../../../../pic32c/lib/thumb/v7e-m+dp/hard\libc-musl.a(__printf_core.o)
 .comment       0x0000002b       0x2c c:/program files/microchip/xc32/v4.20/bin/bin/../../lib/gcc/pic32c/8.3.1/../../../../pic32c/lib/thumb/v7e-m+dp/hard\libc-musl.a(atoi.o)
 .comment       0x0000002b       0x2c c:/program files/microchip/xc32/v4.20/bin/bin/../../lib/gcc/pic32c/8.3.1/../../../../pic32c/lib/thumb/v7e-m+dp/hard\libc-musl.a(tolower.o)
 .comment       0x0000002b       0x2c c:/program files/microchip/xc32/v4.20/bin/bin/../../lib/gcc/pic32c/8.3.1/../../../../pic32c/lib/thumb/v7e-m+dp/hard\libc-musl.a(__fmt_a.o)
 .comment       0x0000002b       0x2c c:/program files/microchip/xc32/v4.20/bin/bin/../../lib/gcc/pic32c/8.3.1/../../../../pic32c/lib/thumb/v7e-m+dp/hard\libc-musl.a(__fmt_d.o)
 .comment       0x0000002b       0x2c c:/program files/microchip/xc32/v4.20/bin/bin/../../lib/gcc/pic32c/8.3.1/../../../../pic32c/lib/thumb/v7e-m+dp/hard\libc-musl.a(__fmt_fp.o)
 .comment       0x0000002b       0x2c c:/program files/microchip/xc32/v4.20/bin/bin/../../lib/gcc/pic32c/8.3.1/../../../../pic32c/lib/thumb/v7e-m+dp/hard\libc-musl.a(__fmt_o.o)
 .comment       0x0000002b       0x2c c:/program files/microchip/xc32/v4.20/bin/bin/../../lib/gcc/pic32c/8.3.1/../../../../pic32c/lib/thumb/v7e-m+dp/hard\libc-musl.a(__fmt_s.o)
 .comment       0x0000002b       0x2c c:/program files/microchip/xc32/v4.20/bin/bin/../../lib/gcc/pic32c/8.3.1/../../../../pic32c/lib/thumb/v7e-m+dp/hard\libc-musl.a(__fmt_u.o)
 .comment       0x0000002b       0x2c c:/program files/microchip/xc32/v4.20/bin/bin/../../lib/gcc/pic32c/8.3.1/../../../../pic32c/lib/thumb/v7e-m+dp/hard\libc-musl.a(__fmt_x.o)
 .comment       0x0000002b       0x2c c:/program files/microchip/xc32/v4.20/bin/bin/../../lib/gcc/pic32c/8.3.1/../../../../pic32c/lib/thumb/v7e-m+dp/hard\libc-musl.a(strcpy.o)
 .comment       0x0000002b       0x2c c:/program files/microchip/xc32/v4.20/bin/bin/../../lib/gcc/pic32c/8.3.1/../../../../pic32c/lib/thumb/v7e-m+dp/hard\libc-musl.a(toupper.o)
 .comment       0x0000002b       0x2c c:/program files/microchip/xc32/v4.20/bin/bin/../../lib/gcc/pic32c/8.3.1/../../../../pic32c/lib/thumb/v7e-m+dp/hard\libc-musl.a(stpcpy.o)
 .comment       0x0000002b       0x2c c:/program files/microchip/xc32/v4.20/bin/bin/../../lib/gcc/pic32c/8.3.1/../../../../pic32c/lib/thumb/v7e-m+dp/hard\libm-emfloat.a(floor.o)
 .comment       0x0000002b       0x2c c:/program files/microchip/xc32/v4.20/bin/bin/../../lib/gcc/pic32c/8.3.1/thumb/v7e-m+dp/hard\libgcc.a(_udivmoddi4.o)

.debug_info     0x00000000    0x1c42b
 .debug_info    0x00000000      0x9e9 build/sam_e70_xult/production/_ext/917764137/bsp.o
 .debug_info    0x000009e9      0x98c build/sam_e70_xult/production/_ext/1055500827/plib_clk.o
 .debug_info    0x00001375      0x904 build/sam_e70_xult/production/_ext/1055499099/plib_efc.o
 .debug_info    0x00001c79     0x12bd build/sam_e70_xult/production/_ext/1639550079/plib_nvic.o
 .debug_info    0x00002f36      0xeca build/sam_e70_xult/production/_ext/1055488423/plib_pio.o
 .debug_info    0x00003e00     0x13b5 build/sam_e70_xult/production/_ext/1639738731/plib_uart2.o
 .debug_info    0x000051b5     0x13b5 build/sam_e70_xult/production/_ext/1639738731/plib_uart1.o
 .debug_info    0x0000656a     0x185d build/sam_e70_xult/production/_ext/707186936/plib_usart1.o
 .debug_info    0x00007dc7      0x78d build/sam_e70_xult/production/_ext/1763620194/sys_debug.o
 .debug_info    0x00008554     0x100f build/sam_e70_xult/production/_ext/1728594169/initialization.o
 .debug_info    0x00009563      0xde8 build/sam_e70_xult/production/_ext/1728594169/interrupts.o
 .debug_info    0x0000a34b      0x3e5 build/sam_e70_xult/production/_ext/1728594169/exceptions.o
 .debug_info    0x0000a730      0xd85 build/sam_e70_xult/production/_ext/1728594169/startup_xc32.o
 .debug_info    0x0000b4b5      0x337 build/sam_e70_xult/production/_ext/1360937237/main.o
 .debug_info    0x0000b7ec      0xf91 build/sam_e70_xult/production/_ext/1639147296/plib_afec0.o
 .debug_info    0x0000c77d      0xf91 build/sam_e70_xult/production/_ext/1639147296/plib_afec1.o
 .debug_info    0x0000d70e      0x85c build/sam_e70_xult/production/_ext/865331892/plib_tc0.o
 .debug_info    0x0000df6a     0x1bc3 build/sam_e70_xult/production/_ext/1639501792/plib_mcan0.o
 .debug_info    0x0000fb2d     0x1483 build/sam_e70_xult/production/_ext/1953779166/sys_console.o
 .debug_info    0x00010fb0     0x10cb build/sam_e70_xult/production/_ext/1360937237/app.o
 .debug_info    0x0001207b      0x32c build/sam_e70_xult/production/_ext/1728594169/tasks.o
 .debug_info    0x000123a7     0x1585 build/sam_e70_xult/production/_ext/1953779166/sys_console_uart.o
 .debug_info    0x0001392c      0x2a4 c:/program files/microchip/xc32/v4.20/bin/bin/../../lib/gcc/pic32c/8.3.1/../../../../pic32c/lib/thumb/v7e-m+dp/hard\libpic32c.a(data_init_wrapper.o)
 .debug_info    0x00013bd0      0x2a7 c:/program files/microchip/xc32/v4.20/bin/bin/../../lib/gcc/pic32c/8.3.1/../../../../pic32c/lib/thumb/v7e-m+dp/hard\libpic32c.a(data_init_0_1.o)
 .debug_info    0x00013e77      0x625 c:/program files/microchip/xc32/v4.20/bin/bin/../../lib/gcc/pic32c/8.3.1/../../../../pic32c/lib/thumb/v7e-m+dp/hard\libc-musl.a(__libc_start_main.o)
 .debug_info    0x0001449c      0x537 c:/program files/microchip/xc32/v4.20/bin/bin/../../lib/gcc/pic32c/8.3.1/../../../../pic32c/lib/thumb/v7e-m+dp/hard\libc-musl.a(libc.o)
 .debug_info    0x000149d3      0x703 c:/program files/microchip/xc32/v4.20/bin/bin/../../lib/gcc/pic32c/8.3.1/../../../../pic32c/lib/thumb/v7e-m+dp/hard\libc-musl.a(vsnprintf.o)
 .debug_info    0x000150d6      0x2f3 c:/program files/microchip/xc32/v4.20/bin/bin/../../lib/gcc/pic32c/8.3.1/../../../../pic32c/lib/thumb/v7e-m+dp/hard\libc-musl.a(memcpy.o)
 .debug_info    0x000153c9      0x2b7 c:/program files/microchip/xc32/v4.20/bin/bin/../../lib/gcc/pic32c/8.3.1/../../../../pic32c/lib/thumb/v7e-m+dp/hard\libc-musl.a(memset.o)
 .debug_info    0x00015680      0x2a8 c:/program files/microchip/xc32/v4.20/bin/bin/../../lib/gcc/pic32c/8.3.1/../../../../pic32c/lib/thumb/v7e-m+dp/hard\libc-musl.a(strlen.o)
 .debug_info    0x00015928      0x2b1 c:/program files/microchip/xc32/v4.20/bin/bin/../../lib/gcc/pic32c/8.3.1/../../../../pic32c/lib/thumb/v7e-m+dp/hard\libc-musl.a(__environ.o)
 .debug_info    0x00015bd9      0x275 c:/program files/microchip/xc32/v4.20/bin/bin/../../lib/gcc/pic32c/8.3.1/../../../../pic32c/lib/thumb/v7e-m+dp/hard\libc-musl.a(__errno_location.o)
 .debug_info    0x00015e4e      0x6c4 c:/program files/microchip/xc32/v4.20/bin/bin/../../lib/gcc/pic32c/8.3.1/../../../../pic32c/lib/thumb/v7e-m+dp/hard\libc-musl.a(vfprintf.o)
 .debug_info    0x00016512      0x3df c:/program files/microchip/xc32/v4.20/bin/bin/../../lib/gcc/pic32c/8.3.1/../../../../pic32c/lib/thumb/v7e-m+dp/hard\libc-musl.a(__pop_float.o)
 .debug_info    0x000168f1      0x403 c:/program files/microchip/xc32/v4.20/bin/bin/../../lib/gcc/pic32c/8.3.1/../../../../pic32c/lib/thumb/v7e-m+dp/hard\libc-musl.a(__pop_int.o)
 .debug_info    0x00016cf4      0x409 c:/program files/microchip/xc32/v4.20/bin/bin/../../lib/gcc/pic32c/8.3.1/../../../../pic32c/lib/thumb/v7e-m+dp/hard\libc-musl.a(__pop_ptr.o)
 .debug_info    0x000170fd      0xd35 c:/program files/microchip/xc32/v4.20/bin/bin/../../lib/gcc/pic32c/8.3.1/../../../../pic32c/lib/thumb/v7e-m+dp/hard\libc-musl.a(__printf_core.o)
 .debug_info    0x00017e32      0x2fd c:/program files/microchip/xc32/v4.20/bin/bin/../../lib/gcc/pic32c/8.3.1/../../../../pic32c/lib/thumb/v7e-m+dp/hard\libc-musl.a(atoi.o)
 .debug_info    0x0001812f      0x355 c:/program files/microchip/xc32/v4.20/bin/bin/../../lib/gcc/pic32c/8.3.1/../../../../pic32c/lib/thumb/v7e-m+dp/hard\libc-musl.a(tolower.o)
 .debug_info    0x00018484      0x8f4 c:/program files/microchip/xc32/v4.20/bin/bin/../../lib/gcc/pic32c/8.3.1/../../../../pic32c/lib/thumb/v7e-m+dp/hard\libc-musl.a(__fmt_a.o)
 .debug_info    0x00018d78      0x5c4 c:/program files/microchip/xc32/v4.20/bin/bin/../../lib/gcc/pic32c/8.3.1/../../../../pic32c/lib/thumb/v7e-m+dp/hard\libc-musl.a(__fmt_d.o)
 .debug_info    0x0001933c      0x8e7 c:/program files/microchip/xc32/v4.20/bin/bin/../../lib/gcc/pic32c/8.3.1/../../../../pic32c/lib/thumb/v7e-m+dp/hard\libc-musl.a(__fmt_fp.o)
 .debug_info    0x00019c23      0x595 c:/program files/microchip/xc32/v4.20/bin/bin/../../lib/gcc/pic32c/8.3.1/../../../../pic32c/lib/thumb/v7e-m+dp/hard\libc-musl.a(__fmt_o.o)
 .debug_info    0x0001a1b8      0x539 c:/program files/microchip/xc32/v4.20/bin/bin/../../lib/gcc/pic32c/8.3.1/../../../../pic32c/lib/thumb/v7e-m+dp/hard\libc-musl.a(__fmt_s.o)
 .debug_info    0x0001a6f1      0x662 c:/program files/microchip/xc32/v4.20/bin/bin/../../lib/gcc/pic32c/8.3.1/../../../../pic32c/lib/thumb/v7e-m+dp/hard\libc-musl.a(__fmt_u.o)
 .debug_info    0x0001ad53      0x603 c:/program files/microchip/xc32/v4.20/bin/bin/../../lib/gcc/pic32c/8.3.1/../../../../pic32c/lib/thumb/v7e-m+dp/hard\libc-musl.a(__fmt_x.o)
 .debug_info    0x0001b356      0x2b6 c:/program files/microchip/xc32/v4.20/bin/bin/../../lib/gcc/pic32c/8.3.1/../../../../pic32c/lib/thumb/v7e-m+dp/hard\libc-musl.a(strcpy.o)
 .debug_info    0x0001b60c      0x355 c:/program files/microchip/xc32/v4.20/bin/bin/../../lib/gcc/pic32c/8.3.1/../../../../pic32c/lib/thumb/v7e-m+dp/hard\libc-musl.a(toupper.o)
 .debug_info    0x0001b961      0x2ba c:/program files/microchip/xc32/v4.20/bin/bin/../../lib/gcc/pic32c/8.3.1/../../../../pic32c/lib/thumb/v7e-m+dp/hard\libc-musl.a(stpcpy.o)
 .debug_info    0x0001bc1b       0x26 c:/program files/microchip/xc32/v4.20/bin/bin/../../lib/gcc/pic32c/8.3.1/thumb/v7e-m+dp/hard\libgcc.a(_aeabi_uldivmod.o)
 .debug_info    0x0001bc41      0x7c4 c:/program files/microchip/xc32/v4.20/bin/bin/../../lib/gcc/pic32c/8.3.1/thumb/v7e-m+dp/hard\libgcc.a(_udivmoddi4.o)
 .debug_info    0x0001c405       0x26 c:/program files/microchip/xc32/v4.20/bin/bin/../../lib/gcc/pic32c/8.3.1/thumb/v7e-m+dp/hard\libgcc.a(_dvmd_tls.o)

.debug_abbrev   0x00000000     0x462c
 .debug_abbrev  0x00000000       0x99 build/sam_e70_xult/production/_ext/917764137/bsp.o
 .debug_abbrev  0x00000099      0x104 build/sam_e70_xult/production/_ext/1055500827/plib_clk.o
 .debug_abbrev  0x0000019d      0x1e2 build/sam_e70_xult/production/_ext/1055499099/plib_efc.o
 .debug_abbrev  0x0000037f      0x1e4 build/sam_e70_xult/production/_ext/1639550079/plib_nvic.o
 .debug_abbrev  0x00000563      0x16d build/sam_e70_xult/production/_ext/1055488423/plib_pio.o
 .debug_abbrev  0x000006d0      0x469 build/sam_e70_xult/production/_ext/1639738731/plib_uart2.o
 .debug_abbrev  0x00000b39      0x469 build/sam_e70_xult/production/_ext/1639738731/plib_uart1.o
 .debug_abbrev  0x00000fa2      0x467 build/sam_e70_xult/production/_ext/707186936/plib_usart1.o
 .debug_abbrev  0x00001409      0x17c build/sam_e70_xult/production/_ext/1763620194/sys_debug.o
 .debug_abbrev  0x00001585      0x1ea build/sam_e70_xult/production/_ext/1728594169/initialization.o
 .debug_abbrev  0x0000176f       0xb5 build/sam_e70_xult/production/_ext/1728594169/interrupts.o
 .debug_abbrev  0x00001824       0x3e build/sam_e70_xult/production/_ext/1728594169/exceptions.o
 .debug_abbrev  0x00001862      0x210 build/sam_e70_xult/production/_ext/1728594169/startup_xc32.o
 .debug_abbrev  0x00001a72       0x77 build/sam_e70_xult/production/_ext/1360937237/main.o
 .debug_abbrev  0x00001ae9      0x1a0 build/sam_e70_xult/production/_ext/1639147296/plib_afec0.o
 .debug_abbrev  0x00001c89      0x1a0 build/sam_e70_xult/production/_ext/1639147296/plib_afec1.o
 .debug_abbrev  0x00001e29      0x16d build/sam_e70_xult/production/_ext/865331892/plib_tc0.o
 .debug_abbrev  0x00001f96      0x31e build/sam_e70_xult/production/_ext/1639501792/plib_mcan0.o
 .debug_abbrev  0x000022b4      0x401 build/sam_e70_xult/production/_ext/1953779166/sys_console.o
 .debug_abbrev  0x000026b5      0x177 build/sam_e70_xult/production/_ext/1360937237/app.o
 .debug_abbrev  0x0000282c       0x5c build/sam_e70_xult/production/_ext/1728594169/tasks.o
 .debug_abbrev  0x00002888      0x399 build/sam_e70_xult/production/_ext/1953779166/sys_console_uart.o
 .debug_abbrev  0x00002c21       0x2b c:/program files/microchip/xc32/v4.20/bin/bin/../../lib/gcc/pic32c/8.3.1/../../../../pic32c/lib/thumb/v7e-m+dp/hard\libpic32c.a(data_init_wrapper.o)
 .debug_abbrev  0x00002c4c       0x2e c:/program files/microchip/xc32/v4.20/bin/bin/../../lib/gcc/pic32c/8.3.1/../../../../pic32c/lib/thumb/v7e-m+dp/hard\libpic32c.a(data_init_0_1.o)
 .debug_abbrev  0x00002c7a      0x117 c:/program files/microchip/xc32/v4.20/bin/bin/../../lib/gcc/pic32c/8.3.1/../../../../pic32c/lib/thumb/v7e-m+dp/hard\libc-musl.a(__libc_start_main.o)
 .debug_abbrev  0x00002d91       0xb8 c:/program files/microchip/xc32/v4.20/bin/bin/../../lib/gcc/pic32c/8.3.1/../../../../pic32c/lib/thumb/v7e-m+dp/hard\libc-musl.a(libc.o)
 .debug_abbrev  0x00002e49      0x168 c:/program files/microchip/xc32/v4.20/bin/bin/../../lib/gcc/pic32c/8.3.1/../../../../pic32c/lib/thumb/v7e-m+dp/hard\libc-musl.a(vsnprintf.o)
 .debug_abbrev  0x00002fb1       0x9c c:/program files/microchip/xc32/v4.20/bin/bin/../../lib/gcc/pic32c/8.3.1/../../../../pic32c/lib/thumb/v7e-m+dp/hard\libc-musl.a(memcpy.o)
 .debug_abbrev  0x0000304d       0x97 c:/program files/microchip/xc32/v4.20/bin/bin/../../lib/gcc/pic32c/8.3.1/../../../../pic32c/lib/thumb/v7e-m+dp/hard\libc-musl.a(memset.o)
 .debug_abbrev  0x000030e4       0x86 c:/program files/microchip/xc32/v4.20/bin/bin/../../lib/gcc/pic32c/8.3.1/../../../../pic32c/lib/thumb/v7e-m+dp/hard\libc-musl.a(strlen.o)
 .debug_abbrev  0x0000316a       0x57 c:/program files/microchip/xc32/v4.20/bin/bin/../../lib/gcc/pic32c/8.3.1/../../../../pic32c/lib/thumb/v7e-m+dp/hard\libc-musl.a(__environ.o)
 .debug_abbrev  0x000031c1       0x2e c:/program files/microchip/xc32/v4.20/bin/bin/../../lib/gcc/pic32c/8.3.1/../../../../pic32c/lib/thumb/v7e-m+dp/hard\libc-musl.a(__errno_location.o)
 .debug_abbrev  0x000031ef      0x16d c:/program files/microchip/xc32/v4.20/bin/bin/../../lib/gcc/pic32c/8.3.1/../../../../pic32c/lib/thumb/v7e-m+dp/hard\libc-musl.a(vfprintf.o)
 .debug_abbrev  0x0000335c       0xbd c:/program files/microchip/xc32/v4.20/bin/bin/../../lib/gcc/pic32c/8.3.1/../../../../pic32c/lib/thumb/v7e-m+dp/hard\libc-musl.a(__pop_float.o)
 .debug_abbrev  0x00003419       0xbd c:/program files/microchip/xc32/v4.20/bin/bin/../../lib/gcc/pic32c/8.3.1/../../../../pic32c/lib/thumb/v7e-m+dp/hard\libc-musl.a(__pop_int.o)
 .debug_abbrev  0x000034d6       0xce c:/program files/microchip/xc32/v4.20/bin/bin/../../lib/gcc/pic32c/8.3.1/../../../../pic32c/lib/thumb/v7e-m+dp/hard\libc-musl.a(__pop_ptr.o)
 .debug_abbrev  0x000035a4      0x2c5 c:/program files/microchip/xc32/v4.20/bin/bin/../../lib/gcc/pic32c/8.3.1/../../../../pic32c/lib/thumb/v7e-m+dp/hard\libc-musl.a(__printf_core.o)
 .debug_abbrev  0x00003869       0xbb c:/program files/microchip/xc32/v4.20/bin/bin/../../lib/gcc/pic32c/8.3.1/../../../../pic32c/lib/thumb/v7e-m+dp/hard\libc-musl.a(atoi.o)
 .debug_abbrev  0x00003924       0xfd c:/program files/microchip/xc32/v4.20/bin/bin/../../lib/gcc/pic32c/8.3.1/../../../../pic32c/lib/thumb/v7e-m+dp/hard\libc-musl.a(tolower.o)
 .debug_abbrev  0x00003a21      0x1a5 c:/program files/microchip/xc32/v4.20/bin/bin/../../lib/gcc/pic32c/8.3.1/../../../../pic32c/lib/thumb/v7e-m+dp/hard\libc-musl.a(__fmt_a.o)
 .debug_abbrev  0x00003bc6      0x120 c:/program files/microchip/xc32/v4.20/bin/bin/../../lib/gcc/pic32c/8.3.1/../../../../pic32c/lib/thumb/v7e-m+dp/hard\libc-musl.a(__fmt_d.o)
 .debug_abbrev  0x00003ce6      0x1a1 c:/program files/microchip/xc32/v4.20/bin/bin/../../lib/gcc/pic32c/8.3.1/../../../../pic32c/lib/thumb/v7e-m+dp/hard\libc-musl.a(__fmt_fp.o)
 .debug_abbrev  0x00003e87      0x120 c:/program files/microchip/xc32/v4.20/bin/bin/../../lib/gcc/pic32c/8.3.1/../../../../pic32c/lib/thumb/v7e-m+dp/hard\libc-musl.a(__fmt_o.o)
 .debug_abbrev  0x00003fa7      0x10b c:/program files/microchip/xc32/v4.20/bin/bin/../../lib/gcc/pic32c/8.3.1/../../../../pic32c/lib/thumb/v7e-m+dp/hard\libc-musl.a(__fmt_s.o)
 .debug_abbrev  0x000040b2      0x163 c:/program files/microchip/xc32/v4.20/bin/bin/../../lib/gcc/pic32c/8.3.1/../../../../pic32c/lib/thumb/v7e-m+dp/hard\libc-musl.a(__fmt_u.o)
 .debug_abbrev  0x00004215      0x10f c:/program files/microchip/xc32/v4.20/bin/bin/../../lib/gcc/pic32c/8.3.1/../../../../pic32c/lib/thumb/v7e-m+dp/hard\libc-musl.a(__fmt_x.o)
 .debug_abbrev  0x00004324       0x8e c:/program files/microchip/xc32/v4.20/bin/bin/../../lib/gcc/pic32c/8.3.1/../../../../pic32c/lib/thumb/v7e-m+dp/hard\libc-musl.a(strcpy.o)
 .debug_abbrev  0x000043b2       0xfd c:/program files/microchip/xc32/v4.20/bin/bin/../../lib/gcc/pic32c/8.3.1/../../../../pic32c/lib/thumb/v7e-m+dp/hard\libc-musl.a(toupper.o)
 .debug_abbrev  0x000044af       0x63 c:/program files/microchip/xc32/v4.20/bin/bin/../../lib/gcc/pic32c/8.3.1/../../../../pic32c/lib/thumb/v7e-m+dp/hard\libc-musl.a(stpcpy.o)
 .debug_abbrev  0x00004512       0x14 c:/program files/microchip/xc32/v4.20/bin/bin/../../lib/gcc/pic32c/8.3.1/thumb/v7e-m+dp/hard\libgcc.a(_aeabi_uldivmod.o)
 .debug_abbrev  0x00004526       0xf2 c:/program files/microchip/xc32/v4.20/bin/bin/../../lib/gcc/pic32c/8.3.1/thumb/v7e-m+dp/hard\libgcc.a(_udivmoddi4.o)
 .debug_abbrev  0x00004618       0x14 c:/program files/microchip/xc32/v4.20/bin/bin/../../lib/gcc/pic32c/8.3.1/thumb/v7e-m+dp/hard\libgcc.a(_dvmd_tls.o)

.debug_aranges  0x00000000      0xbf8
 .debug_aranges
                0x00000000       0x20 build/sam_e70_xult/production/_ext/917764137/bsp.o
 .debug_aranges
                0x00000020       0x20 build/sam_e70_xult/production/_ext/1055500827/plib_clk.o
 .debug_aranges
                0x00000040       0x70 build/sam_e70_xult/production/_ext/1055499099/plib_efc.o
 .debug_aranges
                0x000000b0       0x38 build/sam_e70_xult/production/_ext/1639550079/plib_nvic.o
 .debug_aranges
                0x000000e8       0x60 build/sam_e70_xult/production/_ext/1055488423/plib_pio.o
 .debug_aranges
                0x00000148       0xb8 build/sam_e70_xult/production/_ext/1639738731/plib_uart2.o
 .debug_aranges
                0x00000200       0xb8 build/sam_e70_xult/production/_ext/1639738731/plib_uart1.o
 .debug_aranges
                0x000002b8       0xb8 build/sam_e70_xult/production/_ext/707186936/plib_usart1.o
 .debug_aranges
                0x00000370       0x48 build/sam_e70_xult/production/_ext/1763620194/sys_debug.o
 .debug_aranges
                0x000003b8       0x20 build/sam_e70_xult/production/_ext/1728594169/initialization.o
 .debug_aranges
                0x000003d8       0x20 build/sam_e70_xult/production/_ext/1728594169/interrupts.o
 .debug_aranges
                0x000003f8       0x48 build/sam_e70_xult/production/_ext/1728594169/exceptions.o
 .debug_aranges
                0x00000440       0x28 build/sam_e70_xult/production/_ext/1728594169/startup_xc32.o
 .debug_aranges
                0x00000468       0x20 build/sam_e70_xult/production/_ext/1360937237/main.o
 .debug_aranges
                0x00000488       0xa0 build/sam_e70_xult/production/_ext/1639147296/plib_afec0.o
 .debug_aranges
                0x00000528       0xa0 build/sam_e70_xult/production/_ext/1639147296/plib_afec1.o
 .debug_aranges
                0x000005c8       0x60 build/sam_e70_xult/production/_ext/865331892/plib_tc0.o
 .debug_aranges
                0x00000628       0x98 build/sam_e70_xult/production/_ext/1639501792/plib_mcan0.o
 .debug_aranges
                0x000006c0       0x88 build/sam_e70_xult/production/_ext/1953779166/sys_console.o
 .debug_aranges
                0x00000748       0x28 build/sam_e70_xult/production/_ext/1360937237/app.o
 .debug_aranges
                0x00000770       0x20 build/sam_e70_xult/production/_ext/1728594169/tasks.o
 .debug_aranges
                0x00000790       0x68 build/sam_e70_xult/production/_ext/1953779166/sys_console_uart.o
 .debug_aranges
                0x000007f8       0x20 c:/program files/microchip/xc32/v4.20/bin/bin/../../lib/gcc/pic32c/8.3.1/../../../../pic32c/lib/thumb/v7e-m+dp/hard\libpic32c.a(data_init_wrapper.o)
 .debug_aranges
                0x00000818       0x20 c:/program files/microchip/xc32/v4.20/bin/bin/../../lib/gcc/pic32c/8.3.1/../../../../pic32c/lib/thumb/v7e-m+dp/hard\libpic32c.a(data_init_0_1.o)
 .debug_aranges
                0x00000838       0x28 c:/program files/microchip/xc32/v4.20/bin/bin/../../lib/gcc/pic32c/8.3.1/../../../../pic32c/lib/thumb/v7e-m+dp/hard\libc-musl.a(__libc_start_main.o)
 .debug_aranges
                0x00000860       0x18 c:/program files/microchip/xc32/v4.20/bin/bin/../../lib/gcc/pic32c/8.3.1/../../../../pic32c/lib/thumb/v7e-m+dp/hard\libc-musl.a(libc.o)
 .debug_aranges
                0x00000878       0x20 c:/program files/microchip/xc32/v4.20/bin/bin/../../lib/gcc/pic32c/8.3.1/../../../../pic32c/lib/thumb/v7e-m+dp/hard\libc-musl.a(vsnprintf.o)
 .debug_aranges
                0x00000898       0x20 c:/program files/microchip/xc32/v4.20/bin/bin/../../lib/gcc/pic32c/8.3.1/../../../../pic32c/lib/thumb/v7e-m+dp/hard\libc-musl.a(memcpy.o)
 .debug_aranges
                0x000008b8       0x20 c:/program files/microchip/xc32/v4.20/bin/bin/../../lib/gcc/pic32c/8.3.1/../../../../pic32c/lib/thumb/v7e-m+dp/hard\libc-musl.a(memset.o)
 .debug_aranges
                0x000008d8       0x20 c:/program files/microchip/xc32/v4.20/bin/bin/../../lib/gcc/pic32c/8.3.1/../../../../pic32c/lib/thumb/v7e-m+dp/hard\libc-musl.a(strlen.o)
 .debug_aranges
                0x000008f8       0x18 c:/program files/microchip/xc32/v4.20/bin/bin/../../lib/gcc/pic32c/8.3.1/../../../../pic32c/lib/thumb/v7e-m+dp/hard\libc-musl.a(__environ.o)
 .debug_aranges
                0x00000910       0x18 c:/program files/microchip/xc32/v4.20/bin/bin/../../lib/gcc/pic32c/8.3.1/../../../../pic32c/lib/thumb/v7e-m+dp/hard\libc-musl.a(__errno_location.o)
 .debug_aranges
                0x00000928       0x28 c:/program files/microchip/xc32/v4.20/bin/bin/../../lib/gcc/pic32c/8.3.1/../../../../pic32c/lib/thumb/v7e-m+dp/hard\libc-musl.a(vfprintf.o)
 .debug_aranges
                0x00000950       0x20 c:/program files/microchip/xc32/v4.20/bin/bin/../../lib/gcc/pic32c/8.3.1/../../../../pic32c/lib/thumb/v7e-m+dp/hard\libc-musl.a(__pop_float.o)
 .debug_aranges
                0x00000970       0x20 c:/program files/microchip/xc32/v4.20/bin/bin/../../lib/gcc/pic32c/8.3.1/../../../../pic32c/lib/thumb/v7e-m+dp/hard\libc-musl.a(__pop_int.o)
 .debug_aranges
                0x00000990       0x20 c:/program files/microchip/xc32/v4.20/bin/bin/../../lib/gcc/pic32c/8.3.1/../../../../pic32c/lib/thumb/v7e-m+dp/hard\libc-musl.a(__pop_ptr.o)
 .debug_aranges
                0x000009b0       0x50 c:/program files/microchip/xc32/v4.20/bin/bin/../../lib/gcc/pic32c/8.3.1/../../../../pic32c/lib/thumb/v7e-m+dp/hard\libc-musl.a(__printf_core.o)
 .debug_aranges
                0x00000a00       0x20 c:/program files/microchip/xc32/v4.20/bin/bin/../../lib/gcc/pic32c/8.3.1/../../../../pic32c/lib/thumb/v7e-m+dp/hard\libc-musl.a(atoi.o)
 .debug_aranges
                0x00000a20       0x28 c:/program files/microchip/xc32/v4.20/bin/bin/../../lib/gcc/pic32c/8.3.1/../../../../pic32c/lib/thumb/v7e-m+dp/hard\libc-musl.a(tolower.o)
 .debug_aranges
                0x00000a48       0x20 c:/program files/microchip/xc32/v4.20/bin/bin/../../lib/gcc/pic32c/8.3.1/../../../../pic32c/lib/thumb/v7e-m+dp/hard\libc-musl.a(__fmt_a.o)
 .debug_aranges
                0x00000a68       0x20 c:/program files/microchip/xc32/v4.20/bin/bin/../../lib/gcc/pic32c/8.3.1/../../../../pic32c/lib/thumb/v7e-m+dp/hard\libc-musl.a(__fmt_d.o)
 .debug_aranges
                0x00000a88       0x20 c:/program files/microchip/xc32/v4.20/bin/bin/../../lib/gcc/pic32c/8.3.1/../../../../pic32c/lib/thumb/v7e-m+dp/hard\libc-musl.a(__fmt_fp.o)
 .debug_aranges
                0x00000aa8       0x20 c:/program files/microchip/xc32/v4.20/bin/bin/../../lib/gcc/pic32c/8.3.1/../../../../pic32c/lib/thumb/v7e-m+dp/hard\libc-musl.a(__fmt_o.o)
 .debug_aranges
                0x00000ac8       0x20 c:/program files/microchip/xc32/v4.20/bin/bin/../../lib/gcc/pic32c/8.3.1/../../../../pic32c/lib/thumb/v7e-m+dp/hard\libc-musl.a(__fmt_s.o)
 .debug_aranges
                0x00000ae8       0x28 c:/program files/microchip/xc32/v4.20/bin/bin/../../lib/gcc/pic32c/8.3.1/../../../../pic32c/lib/thumb/v7e-m+dp/hard\libc-musl.a(__fmt_u.o)
 .debug_aranges
                0x00000b10       0x20 c:/program files/microchip/xc32/v4.20/bin/bin/../../lib/gcc/pic32c/8.3.1/../../../../pic32c/lib/thumb/v7e-m+dp/hard\libc-musl.a(__fmt_x.o)
 .debug_aranges
                0x00000b30       0x20 c:/program files/microchip/xc32/v4.20/bin/bin/../../lib/gcc/pic32c/8.3.1/../../../../pic32c/lib/thumb/v7e-m+dp/hard\libc-musl.a(strcpy.o)
 .debug_aranges
                0x00000b50       0x28 c:/program files/microchip/xc32/v4.20/bin/bin/../../lib/gcc/pic32c/8.3.1/../../../../pic32c/lib/thumb/v7e-m+dp/hard\libc-musl.a(toupper.o)
 .debug_aranges
                0x00000b78       0x20 c:/program files/microchip/xc32/v4.20/bin/bin/../../lib/gcc/pic32c/8.3.1/../../../../pic32c/lib/thumb/v7e-m+dp/hard\libc-musl.a(stpcpy.o)
 .debug_aranges
                0x00000b98       0x20 c:/program files/microchip/xc32/v4.20/bin/bin/../../lib/gcc/pic32c/8.3.1/thumb/v7e-m+dp/hard\libgcc.a(_aeabi_uldivmod.o)
 .debug_aranges
                0x00000bb8       0x20 c:/program files/microchip/xc32/v4.20/bin/bin/../../lib/gcc/pic32c/8.3.1/thumb/v7e-m+dp/hard\libgcc.a(_udivmoddi4.o)
 .debug_aranges
                0x00000bd8       0x20 c:/program files/microchip/xc32/v4.20/bin/bin/../../lib/gcc/pic32c/8.3.1/thumb/v7e-m+dp/hard\libgcc.a(_dvmd_tls.o)

.debug_ranges   0x00000000      0xce8
 .debug_ranges  0x00000000       0x10 build/sam_e70_xult/production/_ext/917764137/bsp.o
 .debug_ranges  0x00000010       0x10 build/sam_e70_xult/production/_ext/1055500827/plib_clk.o
 .debug_ranges  0x00000020       0x90 build/sam_e70_xult/production/_ext/1055499099/plib_efc.o
 .debug_ranges  0x000000b0       0x28 build/sam_e70_xult/production/_ext/1639550079/plib_nvic.o
 .debug_ranges  0x000000d8       0x50 build/sam_e70_xult/production/_ext/1055488423/plib_pio.o
 .debug_ranges  0x00000128      0x138 build/sam_e70_xult/production/_ext/1639738731/plib_uart2.o
 .debug_ranges  0x00000260      0x138 build/sam_e70_xult/production/_ext/1639738731/plib_uart1.o
 .debug_ranges  0x00000398      0x150 build/sam_e70_xult/production/_ext/707186936/plib_usart1.o
 .debug_ranges  0x000004e8       0x38 build/sam_e70_xult/production/_ext/1763620194/sys_debug.o
 .debug_ranges  0x00000520       0x10 build/sam_e70_xult/production/_ext/1728594169/initialization.o
 .debug_ranges  0x00000530       0x10 build/sam_e70_xult/production/_ext/1728594169/interrupts.o
 .debug_ranges  0x00000540       0x38 build/sam_e70_xult/production/_ext/1728594169/exceptions.o
 .debug_ranges  0x00000578       0x18 build/sam_e70_xult/production/_ext/1728594169/startup_xc32.o
 .debug_ranges  0x00000590       0x10 build/sam_e70_xult/production/_ext/1360937237/main.o
 .debug_ranges  0x000005a0       0x90 build/sam_e70_xult/production/_ext/1639147296/plib_afec0.o
 .debug_ranges  0x00000630       0x90 build/sam_e70_xult/production/_ext/1639147296/plib_afec1.o
 .debug_ranges  0x000006c0       0x50 build/sam_e70_xult/production/_ext/865331892/plib_tc0.o
 .debug_ranges  0x00000710       0x88 build/sam_e70_xult/production/_ext/1639501792/plib_mcan0.o
 .debug_ranges  0x00000798       0x90 build/sam_e70_xult/production/_ext/1953779166/sys_console.o
 .debug_ranges  0x00000828       0x30 build/sam_e70_xult/production/_ext/1360937237/app.o
 .debug_ranges  0x00000858       0x10 build/sam_e70_xult/production/_ext/1728594169/tasks.o
 .debug_ranges  0x00000868      0x1a8 build/sam_e70_xult/production/_ext/1953779166/sys_console_uart.o
 .debug_ranges  0x00000a10       0x10 c:/program files/microchip/xc32/v4.20/bin/bin/../../lib/gcc/pic32c/8.3.1/../../../../pic32c/lib/thumb/v7e-m+dp/hard\libpic32c.a(data_init_wrapper.o)
 .debug_ranges  0x00000a20       0x10 c:/program files/microchip/xc32/v4.20/bin/bin/../../lib/gcc/pic32c/8.3.1/../../../../pic32c/lib/thumb/v7e-m+dp/hard\libpic32c.a(data_init_0_1.o)
 .debug_ranges  0x00000a30       0x40 c:/program files/microchip/xc32/v4.20/bin/bin/../../lib/gcc/pic32c/8.3.1/../../../../pic32c/lib/thumb/v7e-m+dp/hard\libc-musl.a(__libc_start_main.o)
 .debug_ranges  0x00000a70       0x10 c:/program files/microchip/xc32/v4.20/bin/bin/../../lib/gcc/pic32c/8.3.1/../../../../pic32c/lib/thumb/v7e-m+dp/hard\libc-musl.a(vsnprintf.o)
 .debug_ranges  0x00000a80       0x10 c:/program files/microchip/xc32/v4.20/bin/bin/../../lib/gcc/pic32c/8.3.1/../../../../pic32c/lib/thumb/v7e-m+dp/hard\libc-musl.a(memcpy.o)
 .debug_ranges  0x00000a90       0x10 c:/program files/microchip/xc32/v4.20/bin/bin/../../lib/gcc/pic32c/8.3.1/../../../../pic32c/lib/thumb/v7e-m+dp/hard\libc-musl.a(memset.o)
 .debug_ranges  0x00000aa0       0x10 c:/program files/microchip/xc32/v4.20/bin/bin/../../lib/gcc/pic32c/8.3.1/../../../../pic32c/lib/thumb/v7e-m+dp/hard\libc-musl.a(strlen.o)
 .debug_ranges  0x00000ab0       0x18 c:/program files/microchip/xc32/v4.20/bin/bin/../../lib/gcc/pic32c/8.3.1/../../../../pic32c/lib/thumb/v7e-m+dp/hard\libc-musl.a(vfprintf.o)
 .debug_ranges  0x00000ac8       0x10 c:/program files/microchip/xc32/v4.20/bin/bin/../../lib/gcc/pic32c/8.3.1/../../../../pic32c/lib/thumb/v7e-m+dp/hard\libc-musl.a(__pop_float.o)
 .debug_ranges  0x00000ad8       0x10 c:/program files/microchip/xc32/v4.20/bin/bin/../../lib/gcc/pic32c/8.3.1/../../../../pic32c/lib/thumb/v7e-m+dp/hard\libc-musl.a(__pop_int.o)
 .debug_ranges  0x00000ae8       0x10 c:/program files/microchip/xc32/v4.20/bin/bin/../../lib/gcc/pic32c/8.3.1/../../../../pic32c/lib/thumb/v7e-m+dp/hard\libc-musl.a(__pop_ptr.o)
 .debug_ranges  0x00000af8       0x68 c:/program files/microchip/xc32/v4.20/bin/bin/../../lib/gcc/pic32c/8.3.1/../../../../pic32c/lib/thumb/v7e-m+dp/hard\libc-musl.a(__printf_core.o)
 .debug_ranges  0x00000b60       0x10 c:/program files/microchip/xc32/v4.20/bin/bin/../../lib/gcc/pic32c/8.3.1/../../../../pic32c/lib/thumb/v7e-m+dp/hard\libc-musl.a(atoi.o)
 .debug_ranges  0x00000b70       0x18 c:/program files/microchip/xc32/v4.20/bin/bin/../../lib/gcc/pic32c/8.3.1/../../../../pic32c/lib/thumb/v7e-m+dp/hard\libc-musl.a(tolower.o)
 .debug_ranges  0x00000b88       0x10 c:/program files/microchip/xc32/v4.20/bin/bin/../../lib/gcc/pic32c/8.3.1/../../../../pic32c/lib/thumb/v7e-m+dp/hard\libc-musl.a(__fmt_a.o)
 .debug_ranges  0x00000b98       0x10 c:/program files/microchip/xc32/v4.20/bin/bin/../../lib/gcc/pic32c/8.3.1/../../../../pic32c/lib/thumb/v7e-m+dp/hard\libc-musl.a(__fmt_d.o)
 .debug_ranges  0x00000ba8       0x10 c:/program files/microchip/xc32/v4.20/bin/bin/../../lib/gcc/pic32c/8.3.1/../../../../pic32c/lib/thumb/v7e-m+dp/hard\libc-musl.a(__fmt_fp.o)
 .debug_ranges  0x00000bb8       0x10 c:/program files/microchip/xc32/v4.20/bin/bin/../../lib/gcc/pic32c/8.3.1/../../../../pic32c/lib/thumb/v7e-m+dp/hard\libc-musl.a(__fmt_o.o)
 .debug_ranges  0x00000bc8       0x10 c:/program files/microchip/xc32/v4.20/bin/bin/../../lib/gcc/pic32c/8.3.1/../../../../pic32c/lib/thumb/v7e-m+dp/hard\libc-musl.a(__fmt_s.o)
 .debug_ranges  0x00000bd8       0x18 c:/program files/microchip/xc32/v4.20/bin/bin/../../lib/gcc/pic32c/8.3.1/../../../../pic32c/lib/thumb/v7e-m+dp/hard\libc-musl.a(__fmt_u.o)
 .debug_ranges  0x00000bf0       0x10 c:/program files/microchip/xc32/v4.20/bin/bin/../../lib/gcc/pic32c/8.3.1/../../../../pic32c/lib/thumb/v7e-m+dp/hard\libc-musl.a(__fmt_x.o)
 .debug_ranges  0x00000c00       0x10 c:/program files/microchip/xc32/v4.20/bin/bin/../../lib/gcc/pic32c/8.3.1/../../../../pic32c/lib/thumb/v7e-m+dp/hard\libc-musl.a(strcpy.o)
 .debug_ranges  0x00000c10       0x18 c:/program files/microchip/xc32/v4.20/bin/bin/../../lib/gcc/pic32c/8.3.1/../../../../pic32c/lib/thumb/v7e-m+dp/hard\libc-musl.a(toupper.o)
 .debug_ranges  0x00000c28       0x10 c:/program files/microchip/xc32/v4.20/bin/bin/../../lib/gcc/pic32c/8.3.1/../../../../pic32c/lib/thumb/v7e-m+dp/hard\libc-musl.a(stpcpy.o)
 .debug_ranges  0x00000c38       0xb0 c:/program files/microchip/xc32/v4.20/bin/bin/../../lib/gcc/pic32c/8.3.1/thumb/v7e-m+dp/hard\libgcc.a(_udivmoddi4.o)

.debug_line     0x00000000     0x9092
 .debug_line    0x00000000       0xdc build/sam_e70_xult/production/_ext/917764137/bsp.o
 .debug_line    0x000000dc      0x291 build/sam_e70_xult/production/_ext/1055500827/plib_clk.o
 .debug_line    0x0000036d      0x421 build/sam_e70_xult/production/_ext/1055499099/plib_efc.o
 .debug_line    0x0000078e      0x3c4 build/sam_e70_xult/production/_ext/1639550079/plib_nvic.o
 .debug_line    0x00000b52      0x3c8 build/sam_e70_xult/production/_ext/1055488423/plib_pio.o
 .debug_line    0x00000f1a      0x7ff build/sam_e70_xult/production/_ext/1639738731/plib_uart2.o
 .debug_line    0x00001719      0x7ff build/sam_e70_xult/production/_ext/1639738731/plib_uart1.o
 .debug_line    0x00001f18      0x9a4 build/sam_e70_xult/production/_ext/707186936/plib_usart1.o
 .debug_line    0x000028bc      0x1ef build/sam_e70_xult/production/_ext/1763620194/sys_debug.o
 .debug_line    0x00002aab      0x4c7 build/sam_e70_xult/production/_ext/1728594169/initialization.o
 .debug_line    0x00002f72       0xbf build/sam_e70_xult/production/_ext/1728594169/interrupts.o
 .debug_line    0x00003031       0xcb build/sam_e70_xult/production/_ext/1728594169/exceptions.o
 .debug_line    0x000030fc      0x456 build/sam_e70_xult/production/_ext/1728594169/startup_xc32.o
 .debug_line    0x00003552       0x72 build/sam_e70_xult/production/_ext/1360937237/main.o
 .debug_line    0x000035c4      0x3da build/sam_e70_xult/production/_ext/1639147296/plib_afec0.o
 .debug_line    0x0000399e      0x3fa build/sam_e70_xult/production/_ext/1639147296/plib_afec1.o
 .debug_line    0x00003d98      0x21a build/sam_e70_xult/production/_ext/865331892/plib_tc0.o
 .debug_line    0x00003fb2      0x71f build/sam_e70_xult/production/_ext/1639501792/plib_mcan0.o
 .debug_line    0x000046d1      0x665 build/sam_e70_xult/production/_ext/1953779166/sys_console.o
 .debug_line    0x00004d36      0x274 build/sam_e70_xult/production/_ext/1360937237/app.o
 .debug_line    0x00004faa       0x6e build/sam_e70_xult/production/_ext/1728594169/tasks.o
 .debug_line    0x00005018      0x627 build/sam_e70_xult/production/_ext/1953779166/sys_console_uart.o
 .debug_line    0x0000563f       0xa8 c:/program files/microchip/xc32/v4.20/bin/bin/../../lib/gcc/pic32c/8.3.1/../../../../pic32c/lib/thumb/v7e-m+dp/hard\libpic32c.a(data_init_wrapper.o)
 .debug_line    0x000056e7       0xf1 c:/program files/microchip/xc32/v4.20/bin/bin/../../lib/gcc/pic32c/8.3.1/../../../../pic32c/lib/thumb/v7e-m+dp/hard\libpic32c.a(data_init_0_1.o)
 .debug_line    0x000057d8      0x1d3 c:/program files/microchip/xc32/v4.20/bin/bin/../../lib/gcc/pic32c/8.3.1/../../../../pic32c/lib/thumb/v7e-m+dp/hard\libc-musl.a(__libc_start_main.o)
 .debug_line    0x000059ab       0xbb c:/program files/microchip/xc32/v4.20/bin/bin/../../lib/gcc/pic32c/8.3.1/../../../../pic32c/lib/thumb/v7e-m+dp/hard\libc-musl.a(libc.o)
 .debug_line    0x00005a66      0x238 c:/program files/microchip/xc32/v4.20/bin/bin/../../lib/gcc/pic32c/8.3.1/../../../../pic32c/lib/thumb/v7e-m+dp/hard\libc-musl.a(vsnprintf.o)
 .debug_line    0x00005c9e       0xf1 c:/program files/microchip/xc32/v4.20/bin/bin/../../lib/gcc/pic32c/8.3.1/../../../../pic32c/lib/thumb/v7e-m+dp/hard\libc-musl.a(memcpy.o)
 .debug_line    0x00005d8f       0xe8 c:/program files/microchip/xc32/v4.20/bin/bin/../../lib/gcc/pic32c/8.3.1/../../../../pic32c/lib/thumb/v7e-m+dp/hard\libc-musl.a(memset.o)
 .debug_line    0x00005e77       0xe4 c:/program files/microchip/xc32/v4.20/bin/bin/../../lib/gcc/pic32c/8.3.1/../../../../pic32c/lib/thumb/v7e-m+dp/hard\libc-musl.a(strlen.o)
 .debug_line    0x00005f5b      0x107 c:/program files/microchip/xc32/v4.20/bin/bin/../../lib/gcc/pic32c/8.3.1/../../../../pic32c/lib/thumb/v7e-m+dp/hard\libc-musl.a(__environ.o)
 .debug_line    0x00006062       0xa0 c:/program files/microchip/xc32/v4.20/bin/bin/../../lib/gcc/pic32c/8.3.1/../../../../pic32c/lib/thumb/v7e-m+dp/hard\libc-musl.a(__errno_location.o)
 .debug_line    0x00006102      0x1f8 c:/program files/microchip/xc32/v4.20/bin/bin/../../lib/gcc/pic32c/8.3.1/../../../../pic32c/lib/thumb/v7e-m+dp/hard\libc-musl.a(vfprintf.o)
 .debug_line    0x000062fa      0x171 c:/program files/microchip/xc32/v4.20/bin/bin/../../lib/gcc/pic32c/8.3.1/../../../../pic32c/lib/thumb/v7e-m+dp/hard\libc-musl.a(__pop_float.o)
 .debug_line    0x0000646b      0x20c c:/program files/microchip/xc32/v4.20/bin/bin/../../lib/gcc/pic32c/8.3.1/../../../../pic32c/lib/thumb/v7e-m+dp/hard\libc-musl.a(__pop_int.o)
 .debug_line    0x00006677      0x1ec c:/program files/microchip/xc32/v4.20/bin/bin/../../lib/gcc/pic32c/8.3.1/../../../../pic32c/lib/thumb/v7e-m+dp/hard\libc-musl.a(__pop_ptr.o)
 .debug_line    0x00006863      0x69b c:/program files/microchip/xc32/v4.20/bin/bin/../../lib/gcc/pic32c/8.3.1/../../../../pic32c/lib/thumb/v7e-m+dp/hard\libc-musl.a(__printf_core.o)
 .debug_line    0x00006efe      0x173 c:/program files/microchip/xc32/v4.20/bin/bin/../../lib/gcc/pic32c/8.3.1/../../../../pic32c/lib/thumb/v7e-m+dp/hard\libc-musl.a(atoi.o)
 .debug_line    0x00007071      0x163 c:/program files/microchip/xc32/v4.20/bin/bin/../../lib/gcc/pic32c/8.3.1/../../../../pic32c/lib/thumb/v7e-m+dp/hard\libc-musl.a(tolower.o)
 .debug_line    0x000071d4      0x62a c:/program files/microchip/xc32/v4.20/bin/bin/../../lib/gcc/pic32c/8.3.1/../../../../pic32c/lib/thumb/v7e-m+dp/hard\libc-musl.a(__fmt_a.o)
 .debug_line    0x000077fe      0x20b c:/program files/microchip/xc32/v4.20/bin/bin/../../lib/gcc/pic32c/8.3.1/../../../../pic32c/lib/thumb/v7e-m+dp/hard\libc-musl.a(__fmt_d.o)
 .debug_line    0x00007a09      0x648 c:/program files/microchip/xc32/v4.20/bin/bin/../../lib/gcc/pic32c/8.3.1/../../../../pic32c/lib/thumb/v7e-m+dp/hard\libc-musl.a(__fmt_fp.o)
 .debug_line    0x00008051      0x1b5 c:/program files/microchip/xc32/v4.20/bin/bin/../../lib/gcc/pic32c/8.3.1/../../../../pic32c/lib/thumb/v7e-m+dp/hard\libc-musl.a(__fmt_o.o)
 .debug_line    0x00008206      0x1fd c:/program files/microchip/xc32/v4.20/bin/bin/../../lib/gcc/pic32c/8.3.1/../../../../pic32c/lib/thumb/v7e-m+dp/hard\libc-musl.a(__fmt_s.o)
 .debug_line    0x00008403      0x23f c:/program files/microchip/xc32/v4.20/bin/bin/../../lib/gcc/pic32c/8.3.1/../../../../pic32c/lib/thumb/v7e-m+dp/hard\libc-musl.a(__fmt_u.o)
 .debug_line    0x00008642      0x2df c:/program files/microchip/xc32/v4.20/bin/bin/../../lib/gcc/pic32c/8.3.1/../../../../pic32c/lib/thumb/v7e-m+dp/hard\libc-musl.a(__fmt_x.o)
 .debug_line    0x00008921       0xb3 c:/program files/microchip/xc32/v4.20/bin/bin/../../lib/gcc/pic32c/8.3.1/../../../../pic32c/lib/thumb/v7e-m+dp/hard\libc-musl.a(strcpy.o)
 .debug_line    0x000089d4      0x163 c:/program files/microchip/xc32/v4.20/bin/bin/../../lib/gcc/pic32c/8.3.1/../../../../pic32c/lib/thumb/v7e-m+dp/hard\libc-musl.a(toupper.o)
 .debug_line    0x00008b37       0xc7 c:/program files/microchip/xc32/v4.20/bin/bin/../../lib/gcc/pic32c/8.3.1/../../../../pic32c/lib/thumb/v7e-m+dp/hard\libc-musl.a(stpcpy.o)
 .debug_line    0x00008bfe       0x97 c:/program files/microchip/xc32/v4.20/bin/bin/../../lib/gcc/pic32c/8.3.1/thumb/v7e-m+dp/hard\libgcc.a(_aeabi_uldivmod.o)
 .debug_line    0x00008c95      0x366 c:/program files/microchip/xc32/v4.20/bin/bin/../../lib/gcc/pic32c/8.3.1/thumb/v7e-m+dp/hard\libgcc.a(_udivmoddi4.o)
 .debug_line    0x00008ffb       0x97 c:/program files/microchip/xc32/v4.20/bin/bin/../../lib/gcc/pic32c/8.3.1/thumb/v7e-m+dp/hard\libgcc.a(_dvmd_tls.o)

.debug_str      0x00000000      0x949
 .debug_str     0x00000000        0x0 build/sam_e70_xult/production/_ext/917764137/bsp.o
 .debug_str     0x00000000       0x14 build/sam_e70_xult/production/_ext/1055500827/plib_clk.o
 .debug_str     0x00000014       0x14 build/sam_e70_xult/production/_ext/1055499099/plib_efc.o
 .debug_str     0x00000028       0x28 build/sam_e70_xult/production/_ext/1639550079/plib_nvic.o
 .debug_str     0x00000050       0x46 build/sam_e70_xult/production/_ext/1055488423/plib_pio.o
 .debug_str     0x00000096       0xa5 build/sam_e70_xult/production/_ext/1639738731/plib_uart2.o
 .debug_str     0x0000013b       0xa5 build/sam_e70_xult/production/_ext/1639738731/plib_uart1.o
 .debug_str     0x000001e0       0xb1 build/sam_e70_xult/production/_ext/707186936/plib_usart1.o
 .debug_str     0x00000291        0x0 build/sam_e70_xult/production/_ext/1763620194/sys_debug.o
 .debug_str     0x00000291      0x152 build/sam_e70_xult/production/_ext/1728594169/initialization.o
 .debug_str     0x000003e3        0x0 build/sam_e70_xult/production/_ext/1728594169/interrupts.o
 .debug_str     0x000003e3        0x0 build/sam_e70_xult/production/_ext/1728594169/exceptions.o
 .debug_str     0x000003e3       0x2f build/sam_e70_xult/production/_ext/1728594169/startup_xc32.o
 .debug_str     0x00000412       0x19 build/sam_e70_xult/production/_ext/1360937237/main.o
 .debug_str     0x0000042b       0x2b build/sam_e70_xult/production/_ext/1639147296/plib_afec0.o
 .debug_str     0x00000456       0x2b build/sam_e70_xult/production/_ext/1639147296/plib_afec1.o
 .debug_str     0x00000481        0xa build/sam_e70_xult/production/_ext/865331892/plib_tc0.o
 .debug_str     0x0000048b       0x88 build/sam_e70_xult/production/_ext/1639501792/plib_mcan0.o
 .debug_str     0x00000513       0x38 build/sam_e70_xult/production/_ext/1953779166/sys_console.o
 .debug_str     0x0000054b      0x139 build/sam_e70_xult/production/_ext/1360937237/app.o
 .debug_str     0x00000684        0xa build/sam_e70_xult/production/_ext/1728594169/tasks.o
 .debug_str     0x0000068e       0x93 build/sam_e70_xult/production/_ext/1953779166/sys_console_uart.o
 .debug_str     0x00000721        0x0 c:/program files/microchip/xc32/v4.20/bin/bin/../../lib/gcc/pic32c/8.3.1/../../../../pic32c/lib/thumb/v7e-m+dp/hard\libpic32c.a(data_init_wrapper.o)
 .debug_str     0x00000721        0x0 c:/program files/microchip/xc32/v4.20/bin/bin/../../lib/gcc/pic32c/8.3.1/../../../../pic32c/lib/thumb/v7e-m+dp/hard\libpic32c.a(data_init_0_1.o)
 .debug_str     0x00000721        0x0 c:/program files/microchip/xc32/v4.20/bin/bin/../../lib/gcc/pic32c/8.3.1/../../../../pic32c/lib/thumb/v7e-m+dp/hard\libc-musl.a(__libc_start_main.o)
 .debug_str     0x00000721        0x0 c:/program files/microchip/xc32/v4.20/bin/bin/../../lib/gcc/pic32c/8.3.1/../../../../pic32c/lib/thumb/v7e-m+dp/hard\libc-musl.a(libc.o)
 .debug_str     0x00000721        0x9 c:/program files/microchip/xc32/v4.20/bin/bin/../../lib/gcc/pic32c/8.3.1/../../../../pic32c/lib/thumb/v7e-m+dp/hard\libc-musl.a(vsnprintf.o)
 .debug_str     0x0000072a        0x0 c:/program files/microchip/xc32/v4.20/bin/bin/../../lib/gcc/pic32c/8.3.1/../../../../pic32c/lib/thumb/v7e-m+dp/hard\libc-musl.a(memcpy.o)
 .debug_str     0x0000072a        0x0 c:/program files/microchip/xc32/v4.20/bin/bin/../../lib/gcc/pic32c/8.3.1/../../../../pic32c/lib/thumb/v7e-m+dp/hard\libc-musl.a(memset.o)
 .debug_str     0x0000072a        0x0 c:/program files/microchip/xc32/v4.20/bin/bin/../../lib/gcc/pic32c/8.3.1/../../../../pic32c/lib/thumb/v7e-m+dp/hard\libc-musl.a(strlen.o)
 .debug_str     0x0000072a        0x0 c:/program files/microchip/xc32/v4.20/bin/bin/../../lib/gcc/pic32c/8.3.1/../../../../pic32c/lib/thumb/v7e-m+dp/hard\libc-musl.a(__environ.o)
 .debug_str     0x0000072a        0x0 c:/program files/microchip/xc32/v4.20/bin/bin/../../lib/gcc/pic32c/8.3.1/../../../../pic32c/lib/thumb/v7e-m+dp/hard\libc-musl.a(__errno_location.o)
 .debug_str     0x0000072a       0x1e c:/program files/microchip/xc32/v4.20/bin/bin/../../lib/gcc/pic32c/8.3.1/../../../../pic32c/lib/thumb/v7e-m+dp/hard\libc-musl.a(vfprintf.o)
 .debug_str     0x00000748        0x0 c:/program files/microchip/xc32/v4.20/bin/bin/../../lib/gcc/pic32c/8.3.1/../../../../pic32c/lib/thumb/v7e-m+dp/hard\libc-musl.a(__pop_float.o)
 .debug_str     0x00000748        0x0 c:/program files/microchip/xc32/v4.20/bin/bin/../../lib/gcc/pic32c/8.3.1/../../../../pic32c/lib/thumb/v7e-m+dp/hard\libc-musl.a(__pop_int.o)
 .debug_str     0x00000748        0x0 c:/program files/microchip/xc32/v4.20/bin/bin/../../lib/gcc/pic32c/8.3.1/../../../../pic32c/lib/thumb/v7e-m+dp/hard\libc-musl.a(__pop_ptr.o)
 .debug_str     0x00000748       0x20 c:/program files/microchip/xc32/v4.20/bin/bin/../../lib/gcc/pic32c/8.3.1/../../../../pic32c/lib/thumb/v7e-m+dp/hard\libc-musl.a(__printf_core.o)
 .debug_str     0x00000768        0x0 c:/program files/microchip/xc32/v4.20/bin/bin/../../lib/gcc/pic32c/8.3.1/../../../../pic32c/lib/thumb/v7e-m+dp/hard\libc-musl.a(atoi.o)
 .debug_str     0x00000768        0x0 c:/program files/microchip/xc32/v4.20/bin/bin/../../lib/gcc/pic32c/8.3.1/../../../../pic32c/lib/thumb/v7e-m+dp/hard\libc-musl.a(tolower.o)
 .debug_str     0x00000768        0x0 c:/program files/microchip/xc32/v4.20/bin/bin/../../lib/gcc/pic32c/8.3.1/../../../../pic32c/lib/thumb/v7e-m+dp/hard\libc-musl.a(__fmt_a.o)
 .debug_str     0x00000768        0x0 c:/program files/microchip/xc32/v4.20/bin/bin/../../lib/gcc/pic32c/8.3.1/../../../../pic32c/lib/thumb/v7e-m+dp/hard\libc-musl.a(__fmt_d.o)
 .debug_str     0x00000768        0x0 c:/program files/microchip/xc32/v4.20/bin/bin/../../lib/gcc/pic32c/8.3.1/../../../../pic32c/lib/thumb/v7e-m+dp/hard\libc-musl.a(__fmt_fp.o)
 .debug_str     0x00000768        0x0 c:/program files/microchip/xc32/v4.20/bin/bin/../../lib/gcc/pic32c/8.3.1/../../../../pic32c/lib/thumb/v7e-m+dp/hard\libc-musl.a(__fmt_o.o)
 .debug_str     0x00000768        0x0 c:/program files/microchip/xc32/v4.20/bin/bin/../../lib/gcc/pic32c/8.3.1/../../../../pic32c/lib/thumb/v7e-m+dp/hard\libc-musl.a(__fmt_s.o)
 .debug_str     0x00000768        0x6 c:/program files/microchip/xc32/v4.20/bin/bin/../../lib/gcc/pic32c/8.3.1/../../../../pic32c/lib/thumb/v7e-m+dp/hard\libc-musl.a(__fmt_u.o)
 .debug_str     0x0000076e        0x0 c:/program files/microchip/xc32/v4.20/bin/bin/../../lib/gcc/pic32c/8.3.1/../../../../pic32c/lib/thumb/v7e-m+dp/hard\libc-musl.a(__fmt_x.o)
 .debug_str     0x0000076e        0x9 c:/program files/microchip/xc32/v4.20/bin/bin/../../lib/gcc/pic32c/8.3.1/../../../../pic32c/lib/thumb/v7e-m+dp/hard\libc-musl.a(strcpy.o)
 .debug_str     0x00000777        0x0 c:/program files/microchip/xc32/v4.20/bin/bin/../../lib/gcc/pic32c/8.3.1/../../../../pic32c/lib/thumb/v7e-m+dp/hard\libc-musl.a(toupper.o)
 .debug_str     0x00000777        0x0 c:/program files/microchip/xc32/v4.20/bin/bin/../../lib/gcc/pic32c/8.3.1/../../../../pic32c/lib/thumb/v7e-m+dp/hard\libc-musl.a(stpcpy.o)
 .debug_str     0x00000777       0xe7 c:/program files/microchip/xc32/v4.20/bin/bin/../../lib/gcc/pic32c/8.3.1/thumb/v7e-m+dp/hard\libgcc.a(_aeabi_uldivmod.o)
 .debug_str     0x0000085e        0x0 c:/program files/microchip/xc32/v4.20/bin/bin/../../lib/gcc/pic32c/8.3.1/thumb/v7e-m+dp/hard\libgcc.a(_udivmoddi4.o)
 .debug_str     0x0000085e       0xeb c:/program files/microchip/xc32/v4.20/bin/bin/../../lib/gcc/pic32c/8.3.1/thumb/v7e-m+dp/hard\libgcc.a(_dvmd_tls.o)

.debug_frame    0x00000000     0x16c4
 .debug_frame   0x00000000       0x20 build/sam_e70_xult/production/_ext/917764137/bsp.o
 .debug_frame   0x00000020       0x20 build/sam_e70_xult/production/_ext/1055500827/plib_clk.o
 .debug_frame   0x00000040       0xec build/sam_e70_xult/production/_ext/1055499099/plib_efc.o
 .debug_frame   0x0000012c       0x50 build/sam_e70_xult/production/_ext/1639550079/plib_nvic.o
 .debug_frame   0x0000017c       0xac build/sam_e70_xult/production/_ext/1055488423/plib_pio.o
 .debug_frame   0x00000228      0x1b4 build/sam_e70_xult/production/_ext/1639738731/plib_uart2.o
 .debug_frame   0x000003dc      0x1b4 build/sam_e70_xult/production/_ext/1639738731/plib_uart1.o
 .debug_frame   0x00000590      0x1bc build/sam_e70_xult/production/_ext/707186936/plib_usart1.o
 .debug_frame   0x0000074c       0x70 build/sam_e70_xult/production/_ext/1763620194/sys_debug.o
 .debug_frame   0x000007bc       0x28 build/sam_e70_xult/production/_ext/1728594169/initialization.o
 .debug_frame   0x000007e4       0x20 build/sam_e70_xult/production/_ext/1728594169/interrupts.o
 .debug_frame   0x00000804       0x70 build/sam_e70_xult/production/_ext/1728594169/exceptions.o
 .debug_frame   0x00000874       0x38 build/sam_e70_xult/production/_ext/1728594169/startup_xc32.o
 .debug_frame   0x000008ac       0x28 build/sam_e70_xult/production/_ext/1360937237/main.o
 .debug_frame   0x000008d4      0x140 build/sam_e70_xult/production/_ext/1639147296/plib_afec0.o
 .debug_frame   0x00000a14      0x140 build/sam_e70_xult/production/_ext/1639147296/plib_afec1.o
 .debug_frame   0x00000b54       0xa8 build/sam_e70_xult/production/_ext/865331892/plib_tc0.o
 .debug_frame   0x00000bfc      0x180 build/sam_e70_xult/production/_ext/1639501792/plib_mcan0.o
 .debug_frame   0x00000d7c      0x1d0 build/sam_e70_xult/production/_ext/1953779166/sys_console.o
 .debug_frame   0x00000f4c       0x3c build/sam_e70_xult/production/_ext/1360937237/app.o
 .debug_frame   0x00000f88       0x28 build/sam_e70_xult/production/_ext/1728594169/tasks.o
 .debug_frame   0x00000fb0       0xf8 build/sam_e70_xult/production/_ext/1953779166/sys_console_uart.o
 .debug_frame   0x000010a8       0x20 c:/program files/microchip/xc32/v4.20/bin/bin/../../lib/gcc/pic32c/8.3.1/../../../../pic32c/lib/thumb/v7e-m+dp/hard\libpic32c.a(data_init_wrapper.o)
 .debug_frame   0x000010c8       0x2c c:/program files/microchip/xc32/v4.20/bin/bin/../../lib/gcc/pic32c/8.3.1/../../../../pic32c/lib/thumb/v7e-m+dp/hard\libpic32c.a(data_init_0_1.o)
 .debug_frame   0x000010f4       0x3c c:/program files/microchip/xc32/v4.20/bin/bin/../../lib/gcc/pic32c/8.3.1/../../../../pic32c/lib/thumb/v7e-m+dp/hard\libc-musl.a(__libc_start_main.o)
 .debug_frame   0x00001130       0x38 c:/program files/microchip/xc32/v4.20/bin/bin/../../lib/gcc/pic32c/8.3.1/../../../../pic32c/lib/thumb/v7e-m+dp/hard\libc-musl.a(vsnprintf.o)
 .debug_frame   0x00001168       0x28 c:/program files/microchip/xc32/v4.20/bin/bin/../../lib/gcc/pic32c/8.3.1/../../../../pic32c/lib/thumb/v7e-m+dp/hard\libc-musl.a(memcpy.o)
 .debug_frame   0x00001190       0x20 c:/program files/microchip/xc32/v4.20/bin/bin/../../lib/gcc/pic32c/8.3.1/../../../../pic32c/lib/thumb/v7e-m+dp/hard\libc-musl.a(memset.o)
 .debug_frame   0x000011b0       0x20 c:/program files/microchip/xc32/v4.20/bin/bin/../../lib/gcc/pic32c/8.3.1/../../../../pic32c/lib/thumb/v7e-m+dp/hard\libc-musl.a(strlen.o)
 .debug_frame   0x000011d0       0x3c c:/program files/microchip/xc32/v4.20/bin/bin/../../lib/gcc/pic32c/8.3.1/../../../../pic32c/lib/thumb/v7e-m+dp/hard\libc-musl.a(vfprintf.o)
 .debug_frame   0x0000120c       0x20 c:/program files/microchip/xc32/v4.20/bin/bin/../../lib/gcc/pic32c/8.3.1/../../../../pic32c/lib/thumb/v7e-m+dp/hard\libc-musl.a(__pop_float.o)
 .debug_frame   0x0000122c       0x28 c:/program files/microchip/xc32/v4.20/bin/bin/../../lib/gcc/pic32c/8.3.1/../../../../pic32c/lib/thumb/v7e-m+dp/hard\libc-musl.a(__pop_int.o)
 .debug_frame   0x00001254       0x28 c:/program files/microchip/xc32/v4.20/bin/bin/../../lib/gcc/pic32c/8.3.1/../../../../pic32c/lib/thumb/v7e-m+dp/hard\libc-musl.a(__pop_ptr.o)
 .debug_frame   0x0000127c       0xd8 c:/program files/microchip/xc32/v4.20/bin/bin/../../lib/gcc/pic32c/8.3.1/../../../../pic32c/lib/thumb/v7e-m+dp/hard\libc-musl.a(__printf_core.o)
 .debug_frame   0x00001354       0x28 c:/program files/microchip/xc32/v4.20/bin/bin/../../lib/gcc/pic32c/8.3.1/../../../../pic32c/lib/thumb/v7e-m+dp/hard\libc-musl.a(atoi.o)
 .debug_frame   0x0000137c       0x30 c:/program files/microchip/xc32/v4.20/bin/bin/../../lib/gcc/pic32c/8.3.1/../../../../pic32c/lib/thumb/v7e-m+dp/hard\libc-musl.a(tolower.o)
 .debug_frame   0x000013ac       0x84 c:/program files/microchip/xc32/v4.20/bin/bin/../../lib/gcc/pic32c/8.3.1/../../../../pic32c/lib/thumb/v7e-m+dp/hard\libc-musl.a(__fmt_a.o)
 .debug_frame   0x00001430       0x3c c:/program files/microchip/xc32/v4.20/bin/bin/../../lib/gcc/pic32c/8.3.1/../../../../pic32c/lib/thumb/v7e-m+dp/hard\libc-musl.a(__fmt_d.o)
 .debug_frame   0x0000146c       0x78 c:/program files/microchip/xc32/v4.20/bin/bin/../../lib/gcc/pic32c/8.3.1/../../../../pic32c/lib/thumb/v7e-m+dp/hard\libc-musl.a(__fmt_fp.o)
 .debug_frame   0x000014e4       0x34 c:/program files/microchip/xc32/v4.20/bin/bin/../../lib/gcc/pic32c/8.3.1/../../../../pic32c/lib/thumb/v7e-m+dp/hard\libc-musl.a(__fmt_o.o)
 .debug_frame   0x00001518       0x34 c:/program files/microchip/xc32/v4.20/bin/bin/../../lib/gcc/pic32c/8.3.1/../../../../pic32c/lib/thumb/v7e-m+dp/hard\libc-musl.a(__fmt_s.o)
 .debug_frame   0x0000154c       0x5c c:/program files/microchip/xc32/v4.20/bin/bin/../../lib/gcc/pic32c/8.3.1/../../../../pic32c/lib/thumb/v7e-m+dp/hard\libc-musl.a(__fmt_u.o)
 .debug_frame   0x000015a8       0x40 c:/program files/microchip/xc32/v4.20/bin/bin/../../lib/gcc/pic32c/8.3.1/../../../../pic32c/lib/thumb/v7e-m+dp/hard\libc-musl.a(__fmt_x.o)
 .debug_frame   0x000015e8       0x28 c:/program files/microchip/xc32/v4.20/bin/bin/../../lib/gcc/pic32c/8.3.1/../../../../pic32c/lib/thumb/v7e-m+dp/hard\libc-musl.a(strcpy.o)
 .debug_frame   0x00001610       0x30 c:/program files/microchip/xc32/v4.20/bin/bin/../../lib/gcc/pic32c/8.3.1/../../../../pic32c/lib/thumb/v7e-m+dp/hard\libc-musl.a(toupper.o)
 .debug_frame   0x00001640       0x20 c:/program files/microchip/xc32/v4.20/bin/bin/../../lib/gcc/pic32c/8.3.1/../../../../pic32c/lib/thumb/v7e-m+dp/hard\libc-musl.a(stpcpy.o)
 .debug_frame   0x00001660       0x2c c:/program files/microchip/xc32/v4.20/bin/bin/../../lib/gcc/pic32c/8.3.1/thumb/v7e-m+dp/hard\libgcc.a(_aeabi_uldivmod.o)
 .debug_frame   0x0000168c       0x38 c:/program files/microchip/xc32/v4.20/bin/bin/../../lib/gcc/pic32c/8.3.1/thumb/v7e-m+dp/hard\libgcc.a(_udivmoddi4.o)

.debug_loc      0x00000000     0x8940
 .debug_loc     0x00000000      0x51b build/sam_e70_xult/production/_ext/1055499099/plib_efc.o
 .debug_loc     0x0000051b      0x1c1 build/sam_e70_xult/production/_ext/1639550079/plib_nvic.o
 .debug_loc     0x000006dc       0xc0 build/sam_e70_xult/production/_ext/1055488423/plib_pio.o
 .debug_loc     0x0000079c      0x913 build/sam_e70_xult/production/_ext/1639738731/plib_uart2.o
 .debug_loc     0x000010af      0x913 build/sam_e70_xult/production/_ext/1639738731/plib_uart1.o
 .debug_loc     0x000019c2      0xab5 build/sam_e70_xult/production/_ext/707186936/plib_usart1.o
 .debug_loc     0x00002477       0xa1 build/sam_e70_xult/production/_ext/1763620194/sys_debug.o
 .debug_loc     0x00002518       0x45 build/sam_e70_xult/production/_ext/1728594169/initialization.o
 .debug_loc     0x0000255d       0xa7 build/sam_e70_xult/production/_ext/1728594169/startup_xc32.o
 .debug_loc     0x00002604       0x20 build/sam_e70_xult/production/_ext/1360937237/main.o
 .debug_loc     0x00002624      0x262 build/sam_e70_xult/production/_ext/1639147296/plib_afec0.o
 .debug_loc     0x00002886      0x262 build/sam_e70_xult/production/_ext/1639147296/plib_afec1.o
 .debug_loc     0x00002ae8       0x46 build/sam_e70_xult/production/_ext/865331892/plib_tc0.o
 .debug_loc     0x00002b2e      0x8eb build/sam_e70_xult/production/_ext/1639501792/plib_mcan0.o
 .debug_loc     0x00003419      0xd07 build/sam_e70_xult/production/_ext/1953779166/sys_console.o
 .debug_loc     0x00004120       0x20 build/sam_e70_xult/production/_ext/1360937237/app.o
 .debug_loc     0x00004140       0x20 build/sam_e70_xult/production/_ext/1728594169/tasks.o
 .debug_loc     0x00004160      0x9f9 build/sam_e70_xult/production/_ext/1953779166/sys_console_uart.o
 .debug_loc     0x00004b59       0x14 c:/program files/microchip/xc32/v4.20/bin/bin/../../lib/gcc/pic32c/8.3.1/../../../../pic32c/lib/thumb/v7e-m+dp/hard\libpic32c.a(data_init_0_1.o)
 .debug_loc     0x00004b6d       0x51 c:/program files/microchip/xc32/v4.20/bin/bin/../../lib/gcc/pic32c/8.3.1/../../../../pic32c/lib/thumb/v7e-m+dp/hard\libc-musl.a(__libc_start_main.o)
 .debug_loc     0x00004bbe       0xeb c:/program files/microchip/xc32/v4.20/bin/bin/../../lib/gcc/pic32c/8.3.1/../../../../pic32c/lib/thumb/v7e-m+dp/hard\libc-musl.a(vsnprintf.o)
 .debug_loc     0x00004ca9       0xe5 c:/program files/microchip/xc32/v4.20/bin/bin/../../lib/gcc/pic32c/8.3.1/../../../../pic32c/lib/thumb/v7e-m+dp/hard\libc-musl.a(memcpy.o)
 .debug_loc     0x00004d8e       0x56 c:/program files/microchip/xc32/v4.20/bin/bin/../../lib/gcc/pic32c/8.3.1/../../../../pic32c/lib/thumb/v7e-m+dp/hard\libc-musl.a(memset.o)
 .debug_loc     0x00004de4       0x47 c:/program files/microchip/xc32/v4.20/bin/bin/../../lib/gcc/pic32c/8.3.1/../../../../pic32c/lib/thumb/v7e-m+dp/hard\libc-musl.a(strlen.o)
 .debug_loc     0x00004e2b       0x88 c:/program files/microchip/xc32/v4.20/bin/bin/../../lib/gcc/pic32c/8.3.1/../../../../pic32c/lib/thumb/v7e-m+dp/hard\libc-musl.a(vfprintf.o)
 .debug_loc     0x00004eb3       0xa6 c:/program files/microchip/xc32/v4.20/bin/bin/../../lib/gcc/pic32c/8.3.1/../../../../pic32c/lib/thumb/v7e-m+dp/hard\libc-musl.a(__pop_float.o)
 .debug_loc     0x00004f59      0x2f5 c:/program files/microchip/xc32/v4.20/bin/bin/../../lib/gcc/pic32c/8.3.1/../../../../pic32c/lib/thumb/v7e-m+dp/hard\libc-musl.a(__pop_int.o)
 .debug_loc     0x0000524e      0x1db c:/program files/microchip/xc32/v4.20/bin/bin/../../lib/gcc/pic32c/8.3.1/../../../../pic32c/lib/thumb/v7e-m+dp/hard\libc-musl.a(__pop_ptr.o)
 .debug_loc     0x00005429      0x5e9 c:/program files/microchip/xc32/v4.20/bin/bin/../../lib/gcc/pic32c/8.3.1/../../../../pic32c/lib/thumb/v7e-m+dp/hard\libc-musl.a(__printf_core.o)
 .debug_loc     0x00005a12       0xd8 c:/program files/microchip/xc32/v4.20/bin/bin/../../lib/gcc/pic32c/8.3.1/../../../../pic32c/lib/thumb/v7e-m+dp/hard\libc-musl.a(atoi.o)
 .debug_loc     0x00005aea       0x4a c:/program files/microchip/xc32/v4.20/bin/bin/../../lib/gcc/pic32c/8.3.1/../../../../pic32c/lib/thumb/v7e-m+dp/hard\libc-musl.a(tolower.o)
 .debug_loc     0x00005b34      0xa61 c:/program files/microchip/xc32/v4.20/bin/bin/../../lib/gcc/pic32c/8.3.1/../../../../pic32c/lib/thumb/v7e-m+dp/hard\libc-musl.a(__fmt_a.o)
 .debug_loc     0x00006595      0x1ef c:/program files/microchip/xc32/v4.20/bin/bin/../../lib/gcc/pic32c/8.3.1/../../../../pic32c/lib/thumb/v7e-m+dp/hard\libc-musl.a(__fmt_d.o)
 .debug_loc     0x00006784      0xa86 c:/program files/microchip/xc32/v4.20/bin/bin/../../lib/gcc/pic32c/8.3.1/../../../../pic32c/lib/thumb/v7e-m+dp/hard\libc-musl.a(__fmt_fp.o)
 .debug_loc     0x0000720a      0x10a c:/program files/microchip/xc32/v4.20/bin/bin/../../lib/gcc/pic32c/8.3.1/../../../../pic32c/lib/thumb/v7e-m+dp/hard\libc-musl.a(__fmt_o.o)
 .debug_loc     0x00007314      0x157 c:/program files/microchip/xc32/v4.20/bin/bin/../../lib/gcc/pic32c/8.3.1/../../../../pic32c/lib/thumb/v7e-m+dp/hard\libc-musl.a(__fmt_s.o)
 .debug_loc     0x0000746b      0x2a2 c:/program files/microchip/xc32/v4.20/bin/bin/../../lib/gcc/pic32c/8.3.1/../../../../pic32c/lib/thumb/v7e-m+dp/hard\libc-musl.a(__fmt_u.o)
 .debug_loc     0x0000770d      0x2a9 c:/program files/microchip/xc32/v4.20/bin/bin/../../lib/gcc/pic32c/8.3.1/../../../../pic32c/lib/thumb/v7e-m+dp/hard\libc-musl.a(__fmt_x.o)
 .debug_loc     0x000079b6       0x67 c:/program files/microchip/xc32/v4.20/bin/bin/../../lib/gcc/pic32c/8.3.1/../../../../pic32c/lib/thumb/v7e-m+dp/hard\libc-musl.a(strcpy.o)
 .debug_loc     0x00007a1d       0x4a c:/program files/microchip/xc32/v4.20/bin/bin/../../lib/gcc/pic32c/8.3.1/../../../../pic32c/lib/thumb/v7e-m+dp/hard\libc-musl.a(toupper.o)
 .debug_loc     0x00007a67       0x60 c:/program files/microchip/xc32/v4.20/bin/bin/../../lib/gcc/pic32c/8.3.1/../../../../pic32c/lib/thumb/v7e-m+dp/hard\libc-musl.a(stpcpy.o)
 .debug_loc     0x00007ac7      0xe79 c:/program files/microchip/xc32/v4.20/bin/bin/../../lib/gcc/pic32c/8.3.1/thumb/v7e-m+dp/hard\libgcc.a(_udivmoddi4.o)

.note.GNU-stack
                0x00000000        0x0
 .note.GNU-stack
                0x00000000        0x0 c:/program files/microchip/xc32/v4.20/bin/bin/../../lib/gcc/pic32c/8.3.1/../../../../pic32c/lib/thumb/v7e-m+dp/hard\libc-musl.a(__libc_start_main.o)
 .note.GNU-stack
                0x00000000        0x0 c:/program files/microchip/xc32/v4.20/bin/bin/../../lib/gcc/pic32c/8.3.1/../../../../pic32c/lib/thumb/v7e-m+dp/hard\libc-musl.a(libc.o)
 .note.GNU-stack
                0x00000000        0x0 c:/program files/microchip/xc32/v4.20/bin/bin/../../lib/gcc/pic32c/8.3.1/../../../../pic32c/lib/thumb/v7e-m+dp/hard\libc-musl.a(vsnprintf.o)
 .note.GNU-stack
                0x00000000        0x0 c:/program files/microchip/xc32/v4.20/bin/bin/../../lib/gcc/pic32c/8.3.1/../../../../pic32c/lib/thumb/v7e-m+dp/hard\libc-musl.a(memcpy.o)
 .note.GNU-stack
                0x00000000        0x0 c:/program files/microchip/xc32/v4.20/bin/bin/../../lib/gcc/pic32c/8.3.1/../../../../pic32c/lib/thumb/v7e-m+dp/hard\libc-musl.a(memset.o)
 .note.GNU-stack
                0x00000000        0x0 c:/program files/microchip/xc32/v4.20/bin/bin/../../lib/gcc/pic32c/8.3.1/../../../../pic32c/lib/thumb/v7e-m+dp/hard\libc-musl.a(strlen.o)
 .note.GNU-stack
                0x00000000        0x0 c:/program files/microchip/xc32/v4.20/bin/bin/../../lib/gcc/pic32c/8.3.1/../../../../pic32c/lib/thumb/v7e-m+dp/hard\libc-musl.a(__environ.o)
 .note.GNU-stack
                0x00000000        0x0 c:/program files/microchip/xc32/v4.20/bin/bin/../../lib/gcc/pic32c/8.3.1/../../../../pic32c/lib/thumb/v7e-m+dp/hard\libc-musl.a(__errno_location.o)
 .note.GNU-stack
                0x00000000        0x0 c:/program files/microchip/xc32/v4.20/bin/bin/../../lib/gcc/pic32c/8.3.1/../../../../pic32c/lib/thumb/v7e-m+dp/hard\libc-musl.a(vfprintf.o)
 .note.GNU-stack
                0x00000000        0x0 c:/program files/microchip/xc32/v4.20/bin/bin/../../lib/gcc/pic32c/8.3.1/../../../../pic32c/lib/thumb/v7e-m+dp/hard\libc-musl.a(__pop_float.o)
 .note.GNU-stack
                0x00000000        0x0 c:/program files/microchip/xc32/v4.20/bin/bin/../../lib/gcc/pic32c/8.3.1/../../../../pic32c/lib/thumb/v7e-m+dp/hard\libc-musl.a(__pop_int.o)
 .note.GNU-stack
                0x00000000        0x0 c:/program files/microchip/xc32/v4.20/bin/bin/../../lib/gcc/pic32c/8.3.1/../../../../pic32c/lib/thumb/v7e-m+dp/hard\libc-musl.a(__pop_ptr.o)
 .note.GNU-stack
                0x00000000        0x0 c:/program files/microchip/xc32/v4.20/bin/bin/../../lib/gcc/pic32c/8.3.1/../../../../pic32c/lib/thumb/v7e-m+dp/hard\libc-musl.a(__printf_core.o)
 .note.GNU-stack
                0x00000000        0x0 c:/program files/microchip/xc32/v4.20/bin/bin/../../lib/gcc/pic32c/8.3.1/../../../../pic32c/lib/thumb/v7e-m+dp/hard\libc-musl.a(atoi.o)
 .note.GNU-stack
                0x00000000        0x0 c:/program files/microchip/xc32/v4.20/bin/bin/../../lib/gcc/pic32c/8.3.1/../../../../pic32c/lib/thumb/v7e-m+dp/hard\libc-musl.a(tolower.o)
 .note.GNU-stack
                0x00000000        0x0 c:/program files/microchip/xc32/v4.20/bin/bin/../../lib/gcc/pic32c/8.3.1/../../../../pic32c/lib/thumb/v7e-m+dp/hard\libc-musl.a(__fmt_a.o)
 .note.GNU-stack
                0x00000000        0x0 c:/program files/microchip/xc32/v4.20/bin/bin/../../lib/gcc/pic32c/8.3.1/../../../../pic32c/lib/thumb/v7e-m+dp/hard\libc-musl.a(__fmt_d.o)
 .note.GNU-stack
                0x00000000        0x0 c:/program files/microchip/xc32/v4.20/bin/bin/../../lib/gcc/pic32c/8.3.1/../../../../pic32c/lib/thumb/v7e-m+dp/hard\libc-musl.a(__fmt_fp.o)
 .note.GNU-stack
                0x00000000        0x0 c:/program files/microchip/xc32/v4.20/bin/bin/../../lib/gcc/pic32c/8.3.1/../../../../pic32c/lib/thumb/v7e-m+dp/hard\libc-musl.a(__fmt_o.o)
 .note.GNU-stack
                0x00000000        0x0 c:/program files/microchip/xc32/v4.20/bin/bin/../../lib/gcc/pic32c/8.3.1/../../../../pic32c/lib/thumb/v7e-m+dp/hard\libc-musl.a(__fmt_s.o)
 .note.GNU-stack
                0x00000000        0x0 c:/program files/microchip/xc32/v4.20/bin/bin/../../lib/gcc/pic32c/8.3.1/../../../../pic32c/lib/thumb/v7e-m+dp/hard\libc-musl.a(__fmt_u.o)
 .note.GNU-stack
                0x00000000        0x0 c:/program files/microchip/xc32/v4.20/bin/bin/../../lib/gcc/pic32c/8.3.1/../../../../pic32c/lib/thumb/v7e-m+dp/hard\libc-musl.a(__fmt_x.o)
 .note.GNU-stack
                0x00000000        0x0 c:/program files/microchip/xc32/v4.20/bin/bin/../../lib/gcc/pic32c/8.3.1/../../../../pic32c/lib/thumb/v7e-m+dp/hard\libc-musl.a(strcpy.o)
 .note.GNU-stack
                0x00000000        0x0 c:/program files/microchip/xc32/v4.20/bin/bin/../../lib/gcc/pic32c/8.3.1/../../../../pic32c/lib/thumb/v7e-m+dp/hard\libc-musl.a(toupper.o)
 .note.GNU-stack
                0x00000000        0x0 c:/program files/microchip/xc32/v4.20/bin/bin/../../lib/gcc/pic32c/8.3.1/../../../../pic32c/lib/thumb/v7e-m+dp/hard\libc-musl.a(stpcpy.o)

__xc_reference_data
                0x00000000       0x5c
 __xc_reference_data
                0x00000000        0x4 c:/program files/microchip/xc32/v4.20/bin/bin/../../lib/gcc/pic32c/8.3.1/../../../../pic32c/lib/thumb/v7e-m+dp/hard\libc-musl.a(vfprintf.o)
                0x00000000                __vfprintf_needs_fmt
 __xc_reference_data
                0x00000004       0x58 c:/program files/microchip/xc32/v4.20/bin/bin/../../lib/gcc/pic32c/8.3.1/../../../../pic32c/lib/thumb/v7e-m+dp/hard\libc-musl.a(__io_fmt_needed.o)
                0x00000004                __io_fmt_needed

.stack          0x20400910      0x100
 .stack         0x20400910      0x100 stack

.bss.USART1_WriteBuffer%1
                0x20400000      0x200
 .bss.USART1_WriteBuffer
                0x20400000      0x200 build/sam_e70_xult/production/_ext/707186936/plib_usart1.o

.bss.consolePrintBuffer%2
                0x20400200       0xc8
 .bss.consolePrintBuffer
                0x20400200       0xc8 build/sam_e70_xult/production/_ext/1953779166/sys_console.o

.bss.UART2_ReadBuffer%3
                0x204002c8       0x80
 .bss.UART2_ReadBuffer
                0x204002c8       0x80 build/sam_e70_xult/production/_ext/1639738731/plib_uart2.o

.bss.UART2_WriteBuffer%4
                0x20400348       0x80
 .bss.UART2_WriteBuffer
                0x20400348       0x80 build/sam_e70_xult/production/_ext/1639738731/plib_uart2.o

.bss.UART1_ReadBuffer%5
                0x204003c8       0x80
 .bss.UART1_ReadBuffer
                0x204003c8       0x80 build/sam_e70_xult/production/_ext/1639738731/plib_uart1.o

.bss.UART1_WriteBuffer%6
                0x20400448       0x80
 .bss.UART1_WriteBuffer
                0x20400448       0x80 build/sam_e70_xult/production/_ext/1639738731/plib_uart1.o

.bss.USART1_ReadBuffer%7
                0x204004c8       0x80
 .bss.USART1_ReadBuffer
                0x204004c8       0x80 build/sam_e70_xult/production/_ext/707186936/plib_usart1.o

.bss%8          0x20400548       0x50
 .bss           0x20400548       0x50 c:/program files/microchip/xc32/v4.20/bin/bin/../../lib/gcc/pic32c/8.3.1/../../../../pic32c/lib/thumb/v7e-m+dp/hard\libc-musl.a(libc.o)
                0x20400548                __progname_full
                0x20400548                program_invocation_name
                0x2040054c                program_invocation_short_name
                0x2040054c                __progname
                0x20400550                __sysinfo
                0x20400554                __hwcap
                0x20400558                __libc

.bss.usart1Obj%9
                0x20400598       0x40
 .bss.usart1Obj
                0x20400598       0x40 build/sam_e70_xult/production/_ext/707186936/plib_usart1.o
                0x20400598                usart1Obj

.bss.uart2Obj%10
                0x204005d8       0x38
 .bss.uart2Obj  0x204005d8       0x38 build/sam_e70_xult/production/_ext/1639738731/plib_uart2.o
                0x204005d8                uart2Obj

.bss.uart1Obj%11
                0x20400610       0x38
 .bss.uart1Obj  0x20400610       0x38 build/sam_e70_xult/production/_ext/1639738731/plib_uart1.o
                0x20400610                uart1Obj

.bss%12         0x20400648       0x1c
 .bss           0x20400648       0x1c c:/program files/microchip/xc32/v4.20/bin/bin/../../lib/gcc/pic32c/8.3.1/thumb/v7e-m+dp/hard/crtbegin.o

.bss.mcan0Obj%13
                0x20400664       0x1c
 .bss.mcan0Obj  0x20400664       0x1c build/sam_e70_xult/production/_ext/1639501792/plib_mcan0.o

.bss.mcan0RxFifoCallbackObj%14
                0x20400680       0x10
 .bss.mcan0RxFifoCallbackObj
                0x20400680       0x10 build/sam_e70_xult/production/_ext/1639501792/plib_mcan0.o

.bss.consoleDeviceInstance%15
                0x20400690        0xc
 .bss.consoleDeviceInstance
                0x20400690        0xc build/sam_e70_xult/production/_ext/1953779166/sys_console.o

.bss.uart_console_read_buffer%16
                0x2040069c        0xa
 .bss.uart_console_read_buffer
                0x2040069c        0xa build/sam_e70_xult/production/_ext/1360937237/app.o
                0x2040069c                uart_console_read_buffer

.bss.sysObj%17  0x204006a8        0x8
 .bss.sysObj    0x204006a8        0x8 build/sam_e70_xult/production/_ext/1728594169/initialization.o
                0x204006a8                sysObj

.bss.TC0_CH0_CallbackObj%18
                0x204006b0        0x8
 .bss.TC0_CH0_CallbackObj
                0x204006b0        0x8 build/sam_e70_xult/production/_ext/865331892/plib_tc0.o

.bss.mcan0CallbackObj%19
                0x204006b8        0x8
 .bss.mcan0CallbackObj
                0x204006b8        0x8 build/sam_e70_xult/production/_ext/1639501792/plib_mcan0.o

.bss.mcan0TxEventFifoCallbackObj%20
                0x204006c0        0x8
 .bss.mcan0TxEventFifoCallbackObj
                0x204006c0        0x8 build/sam_e70_xult/production/_ext/1639501792/plib_mcan0.o

.bss.mcan0TxFifoCallbackObj%21
                0x204006c8        0x8
 .bss.mcan0TxFifoCallbackObj
                0x204006c8        0x8 build/sam_e70_xult/production/_ext/1639501792/plib_mcan0.o

.bss.appData%22
                0x204006d0        0x8
 .bss.appData   0x204006d0        0x8 build/sam_e70_xult/production/_ext/1360937237/app.o
                0x204006d0                appData

.bss.gConsoleUartData%23
                0x204006d8        0x8
 .bss.gConsoleUartData
                0x204006d8        0x8 build/sam_e70_xult/production/_ext/1953779166/sys_console_uart.o

.bss.sysDebugInstance%24
                0x204006e0        0x4
 .bss.sysDebugInstance
                0x204006e0        0x4 build/sam_e70_xult/production/_ext/1763620194/sys_debug.o

.bss.cmd.7902%25
                0x204006e4        0x4
 .bss.cmd.7902  0x204006e4        0x4 build/sam_e70_xult/production/_ext/1728594169/startup_xc32.o

.bss%26         0x204006e8        0xc
 .bss           0x204006e8        0x4 c:/program files/microchip/xc32/v4.20/bin/bin/../../lib/gcc/pic32c/8.3.1/../../../../pic32c/lib/thumb/v7e-m+dp/hard\libpic32c.a(data_init_0_1.o)
 .bss           0x204006ec        0x4 c:/program files/microchip/xc32/v4.20/bin/bin/../../lib/gcc/pic32c/8.3.1/../../../../pic32c/lib/thumb/v7e-m+dp/hard\libc-musl.a(__environ.o)
                0x204006ec                __environ
                0x204006ec                environ
                0x204006ec                ___environ
                0x204006ec                _environ
 .bss           0x204006f0        0x4 c:/program files/microchip/xc32/v4.20/bin/bin/../../lib/gcc/pic32c/8.3.1/../../../../pic32c/lib/thumb/v7e-m+dp/hard\libc-musl.a(__errno_location.o)
                0x204006f0                __errno_val

.bss.gblErrLvl%29
                0x204006a6        0x1
 .bss.gblErrLvl
                0x204006a6        0x1 build/sam_e70_xult/production/_ext/1763620194/sys_debug.o
                0x204006a6                gblErrLvl

.bss.consolePrintBufferMutex%30
                0x204006a7        0x1
 .bss.consolePrintBufferMutex
                0x204006a7        0x1 build/sam_e70_xult/production/_ext/1953779166/sys_console.o

.bss.isConsoleMutexCreated%31
                0x204006f4        0x1
 .bss.isConsoleMutexCreated
                0x204006f4        0x1 build/sam_e70_xult/production/_ext/1953779166/sys_console.o

.eh_frame%z1    0x00000000        0x0
 .eh_frame      0x00000000        0x0 c:/program files/microchip/xc32/v4.20/bin/bin/../../lib/gcc/pic32c/8.3.1/thumb/v7e-m+dp/hard/crtbegin.o

.config_D0000000.__config_D0000000%32
                0xd0000000        0x4
 .config_D0000000.__config_D0000000
                0xd0000000        0x4 build/sam_e70_xult/production/_ext/1728594169/initialization.o
                0xd0000000                __config_D0000000

.text.__fmt_a%33
                0x00400190      0x3f0
 .text.__fmt_a  0x00400190      0x3f0 c:/program files/microchip/xc32/v4.20/bin/bin/../../lib/gcc/pic32c/8.3.1/../../../../pic32c/lib/thumb/v7e-m+dp/hard\libc-musl.a(__fmt_a.o)
                0x00400190                __fmt_a_needed
                0x00400190                __fmt_a

.text.__fmt_fp%34
                0x00400580      0x3e8
 .text.__fmt_fp
                0x00400580      0x3e8 c:/program files/microchip/xc32/v4.20/bin/bin/../../lib/gcc/pic32c/8.3.1/../../../../pic32c/lib/thumb/v7e-m+dp/hard\libc-musl.a(__fmt_fp.o)
                0x00400580                __fmt_f_needed
                0x00400580                __fmt_fp

.text.__printf_core%35
                0x00400968      0x2f4
 .text.__printf_core
                0x00400968      0x2f4 c:/program files/microchip/xc32/v4.20/bin/bin/../../lib/gcc/pic32c/8.3.1/../../../../pic32c/lib/thumb/v7e-m+dp/hard\libc-musl.a(__printf_core.o)
                0x00400968                __printf_core

.text%36        0x00400c5c      0x2bc
 .text          0x00400c5c      0x2bc c:/program files/microchip/xc32/v4.20/bin/bin/../../lib/gcc/pic32c/8.3.1/thumb/v7e-m+dp/hard\libgcc.a(_udivmoddi4.o)
                0x00400c5c                __udivmoddi4

.text.APP_Tasks%37
                0x00400f18      0x1d4
 .text.APP_Tasks
                0x00400f18      0x1d4 build/sam_e70_xult/production/_ext/1360937237/app.o
                0x00400f18                APP_Tasks

.dinit%38       0x004010ec      0x180
 .dinit         0x004010ec      0x180 data_init

.text.USART1_InterruptHandler%39
                0x0040126c      0x17c
 .text.USART1_InterruptHandler
                0x0040126c      0x17c build/sam_e70_xult/production/_ext/707186936/plib_usart1.o
                0x0040126c                USART1_InterruptHandler

.text.Reset_Handler%40
                0x004013e8      0x178
 .text.Reset_Handler
                0x004013e8      0x178 build/sam_e70_xult/production/_ext/1728594169/startup_xc32.o
                0x004013e8                Reset_Handler

.rodata%41      0x00401560      0x16c
 .rodata        0x00401560      0x16c build/sam_e70_xult/production/_ext/1360937237/app.o

.text.UART2_InterruptHandler%42
                0x004016cc      0x12c
 .text.UART2_InterruptHandler
                0x004016cc      0x12c build/sam_e70_xult/production/_ext/1639738731/plib_uart2.o
                0x004016cc                UART2_InterruptHandler

.text.UART1_InterruptHandler%43
                0x004017f8      0x12c
 .text.UART1_InterruptHandler
                0x004017f8      0x12c build/sam_e70_xult/production/_ext/1639738731/plib_uart1.o
                0x004017f8                UART1_InterruptHandler

.text.__fmt_x%44
                0x00401924      0x11e
 .text.__fmt_x  0x00401924      0x11e c:/program files/microchip/xc32/v4.20/bin/bin/../../lib/gcc/pic32c/8.3.1/../../../../pic32c/lib/thumb/v7e-m+dp/hard\libc-musl.a(__fmt_x.o)
                0x00401924                __fmt_x_needed
                0x00401924                __fmt_x

.text.CLOCK_Initialize%45
                0x00401a44      0x11c
 .text.CLOCK_Initialize
                0x00401a44      0x11c build/sam_e70_xult/production/_ext/1055500827/plib_clk.o
                0x00401a44                CLOCK_Initialize

.text.PIO_Initialize%46
                0x00401b60      0x110
 .text.PIO_Initialize
                0x00401b60      0x110 build/sam_e70_xult/production/_ext/1055488423/plib_pio.o
                0x00401b60                PIO_Initialize

.text.floor%47  0x00401c70       0xc4
 .text.floor    0x00401c70       0xc4 c:/program files/microchip/xc32/v4.20/bin/bin/../../lib/gcc/pic32c/8.3.1/../../../../pic32c/lib/thumb/v7e-m+dp/hard\libm-emfloat.a(floor.o)
                0x00401c70                floor

.text.MCAN0_INT0_InterruptHandler%48
                0x00401d34       0xb4
 .text.MCAN0_INT0_InterruptHandler
                0x00401d34       0xb4 build/sam_e70_xult/production/_ext/1639501792/plib_mcan0.o
                0x00401d34                MCAN0_INT0_InterruptHandler

.text.__pop_int%49
                0x00401de8       0xac
 .text.__pop_int
                0x00401de8       0xac c:/program files/microchip/xc32/v4.20/bin/bin/../../lib/gcc/pic32c/8.3.1/../../../../pic32c/lib/thumb/v7e-m+dp/hard\libc-musl.a(__pop_int.o)
                0x00401de8                __pop_int_needed
                0x00401de8                __pop_int

.text.__fmt_d%50
                0x00401e94       0xa8
 .text.__fmt_d  0x00401e94       0xa8 c:/program files/microchip/xc32/v4.20/bin/bin/../../lib/gcc/pic32c/8.3.1/../../../../pic32c/lib/thumb/v7e-m+dp/hard\libc-musl.a(__fmt_d.o)
                0x00401e94                __fmt_d
                0x00401e94                __fmt_d_needed

.text.USART1_Write%51
                0x00401f3c       0xa4
 .text.USART1_Write
                0x00401f3c       0xa4 build/sam_e70_xult/production/_ext/707186936/plib_usart1.o
                0x00401f3c                USART1_Write

.text.__pad%52  0x00401fe0       0x80
 .text.__pad    0x00401fe0       0x80 c:/program files/microchip/xc32/v4.20/bin/bin/../../lib/gcc/pic32c/8.3.1/../../../../pic32c/lib/thumb/v7e-m+dp/hard\libc-musl.a(__printf_core.o)
                0x00401fe0                __pad

.text.__pop_ptr%53
                0x00402060       0x7c
 .text.__pop_ptr
                0x00402060       0x7c c:/program files/microchip/xc32/v4.20/bin/bin/../../lib/gcc/pic32c/8.3.1/../../../../pic32c/lib/thumb/v7e-m+dp/hard\libc-musl.a(__pop_ptr.o)
                0x00402060                __pop_ptr
                0x00402060                __pop_ptr_needed

.text.__cvt_u%54
                0x004020dc       0x78
 .text.__cvt_u  0x004020dc       0x78 c:/program files/microchip/xc32/v4.20/bin/bin/../../lib/gcc/pic32c/8.3.1/../../../../pic32c/lib/thumb/v7e-m+dp/hard\libc-musl.a(__fmt_u.o)
                0x004020dc                __cvt_u

.text.NVIC_Initialize%55
                0x00402154       0x74
 .text.NVIC_Initialize
                0x00402154       0x74 build/sam_e70_xult/production/_ext/1639550079/plib_nvic.o
                0x00402154                NVIC_Initialize

.text.__fmt_o%56
                0x004021c8       0x72
 .text.__fmt_o  0x004021c8       0x72 c:/program files/microchip/xc32/v4.20/bin/bin/../../lib/gcc/pic32c/8.3.1/../../../../pic32c/lib/thumb/v7e-m+dp/hard\libc-musl.a(__fmt_o.o)
                0x004021c8                __fmt_o
                0x004021c8                __fmt_o_needed

.text.USART1_Initialize%57
                0x0040223c       0x6c
 .text.USART1_Initialize
                0x0040223c       0x6c build/sam_e70_xult/production/_ext/707186936/plib_usart1.o
                0x0040223c                USART1_Initialize

.text.SYS_Initialize%58
                0x004022a8       0x6c
 .text.SYS_Initialize
                0x004022a8       0x6c build/sam_e70_xult/production/_ext/1728594169/initialization.o
                0x004022a8                SYS_Initialize

.text.SYS_CONSOLE_Print%59
                0x00402314       0x6c
 .text.SYS_CONSOLE_Print
                0x00402314       0x6c build/sam_e70_xult/production/_ext/1953779166/sys_console.o
                0x00402314                SYS_CONSOLE_Print

.text.MCAN0_Initialize%60
                0x00402380       0x68
 .text.MCAN0_Initialize
                0x00402380       0x68 build/sam_e70_xult/production/_ext/1639501792/plib_mcan0.o
                0x00402380                MCAN0_Initialize

.text.__pic32c_data_initialization_impl%61
                0x004023e8       0x60
 .text.__pic32c_data_initialization_impl
                0x004023e8       0x60 c:/program files/microchip/xc32/v4.20/bin/bin/../../lib/gcc/pic32c/8.3.1/../../../../pic32c/lib/thumb/v7e-m+dp/hard\libpic32c.a(data_init_0_1.o)
                0x004023e8                __copy_needed
                0x004023e8                __pic32c_data_initialization_impl

.text.vsnprintf%62
                0x00402448       0x60
 .text.vsnprintf
                0x00402448       0x60 c:/program files/microchip/xc32/v4.20/bin/bin/../../lib/gcc/pic32c/8.3.1/../../../../pic32c/lib/thumb/v7e-m+dp/hard\libc-musl.a(vsnprintf.o)
                0x00402448                vsnprintf

.text.__libc_start_init%63
                0x004024a8       0x5c
 .text.__libc_start_init
                0x004024a8       0x5c c:/program files/microchip/xc32/v4.20/bin/bin/../../lib/gcc/pic32c/8.3.1/../../../../pic32c/lib/thumb/v7e-m+dp/hard\libc-musl.a(__libc_start_main.o)
                0x004024a8                __libc_init_array

.text.USART1_Read%64
                0x00402504       0x58
 .text.USART1_Read
                0x00402504       0x58 build/sam_e70_xult/production/_ext/707186936/plib_usart1.o
                0x00402504                USART1_Read

.text.__fmt_s%65
                0x0040255c       0x58
 .text.__fmt_s  0x0040255c       0x58 c:/program files/microchip/xc32/v4.20/bin/bin/../../lib/gcc/pic32c/8.3.1/../../../../pic32c/lib/thumb/v7e-m+dp/hard\libc-musl.a(__fmt_s.o)
                0x0040255c                __fmt_s
                0x0040255c                __fmt_0_needed
                0x0040255c                __fmt_s_needed

.text.__fmt_u%66
                0x004025b4       0x56
 .text.__fmt_u  0x004025b4       0x56 c:/program files/microchip/xc32/v4.20/bin/bin/../../lib/gcc/pic32c/8.3.1/../../../../pic32c/lib/thumb/v7e-m+dp/hard\libc-musl.a(__fmt_u.o)
                0x004025b4                __fmt_u_needed
                0x004025b4                __fmt_u

.text.SYS_CONSOLE_Initialize%67
                0x0040260c       0x50
 .text.SYS_CONSOLE_Initialize
                0x0040260c       0x50 build/sam_e70_xult/production/_ext/1953779166/sys_console.o
                0x0040260c                SYS_CONSOLE_Initialize

.text.SYS_CONSOLE_Status%68
                0x0040265c       0x50
 .text.SYS_CONSOLE_Status
                0x0040265c       0x50 build/sam_e70_xult/production/_ext/1953779166/sys_console.o
                0x0040265c                SYS_CONSOLE_Status

.text.AFEC1_Initialize%69
                0x004026ac       0x4c
 .text.AFEC1_Initialize
                0x004026ac       0x4c build/sam_e70_xult/production/_ext/1639147296/plib_afec1.o
                0x004026ac                AFEC1_Initialize

.text.atoi%70   0x004026f8       0x46
 .text.atoi     0x004026f8       0x46 c:/program files/microchip/xc32/v4.20/bin/bin/../../lib/gcc/pic32c/8.3.1/../../../../pic32c/lib/thumb/v7e-m+dp/hard\libc-musl.a(atoi.o)
                0x004026f8                atoi

.text.UART2_Initialize%71
                0x00402740       0x44
 .text.UART2_Initialize
                0x00402740       0x44 build/sam_e70_xult/production/_ext/1639738731/plib_uart2.o
                0x00402740                UART2_Initialize

.text.UART1_Initialize%72
                0x00402784       0x44
 .text.UART1_Initialize
                0x00402784       0x44 build/sam_e70_xult/production/_ext/1639738731/plib_uart1.o
                0x00402784                UART1_Initialize

.text.AFEC0_Initialize%73
                0x004027c8       0x44
 .text.AFEC0_Initialize
                0x004027c8       0x44 build/sam_e70_xult/production/_ext/1639147296/plib_afec0.o
                0x004027c8                AFEC0_Initialize

.text%74        0x0040280c       0x40
 .text          0x0040280c       0x40 c:/program files/microchip/xc32/v4.20/bin/bin/../../lib/gcc/pic32c/8.3.1/thumb/v7e-m+dp/hard/crtbegin.o

.text.__fmt_state%75
                0x0040284c       0x38
 .text.__fmt_state
                0x0040284c       0x38 c:/program files/microchip/xc32/v4.20/bin/bin/../../lib/gcc/pic32c/8.3.1/../../../../pic32c/lib/thumb/v7e-m+dp/hard\libc-musl.a(__printf_core.o)
                0x0040284c                __fmt_state

.text.SYS_CONSOLE_Read%76
                0x00402884       0x34
 .text.SYS_CONSOLE_Read
                0x00402884       0x34 build/sam_e70_xult/production/_ext/1953779166/sys_console.o
                0x00402884                SYS_CONSOLE_Read

.text.SYS_CONSOLE_ReadFreeBufferCountGet%77
                0x004028b8       0x34
 .text.SYS_CONSOLE_ReadFreeBufferCountGet
                0x004028b8       0x34 build/sam_e70_xult/production/_ext/1953779166/sys_console.o
                0x004028b8                SYS_CONSOLE_ReadFreeBufferCountGet

.text.SYS_CONSOLE_ReadCountGet%78
                0x004028ec       0x34
 .text.SYS_CONSOLE_ReadCountGet
                0x004028ec       0x34 build/sam_e70_xult/production/_ext/1953779166/sys_console.o
                0x004028ec                SYS_CONSOLE_ReadCountGet

.text.SYS_CONSOLE_Write%79
                0x00402920       0x34
 .text.SYS_CONSOLE_Write
                0x00402920       0x34 build/sam_e70_xult/production/_ext/1953779166/sys_console.o
                0x00402920                SYS_CONSOLE_Write

.text.SYS_CONSOLE_WriteFreeBufferCountGet%80
                0x00402954       0x34
 .text.SYS_CONSOLE_WriteFreeBufferCountGet
                0x00402954       0x34 build/sam_e70_xult/production/_ext/1953779166/sys_console.o
                0x00402954                SYS_CONSOLE_WriteFreeBufferCountGet

.text.SYS_CONSOLE_WriteCountGet%81
                0x00402988       0x34
 .text.SYS_CONSOLE_WriteCountGet
                0x00402988       0x34 build/sam_e70_xult/production/_ext/1953779166/sys_console.o
                0x00402988                SYS_CONSOLE_WriteCountGet

.text.Console_UART_Read%82
                0x004029bc       0x34
 .text.Console_UART_Read
                0x004029bc       0x34 build/sam_e70_xult/production/_ext/1953779166/sys_console_uart.o
                0x004029bc                Console_UART_Read

.text.Console_UART_Write%83
                0x004029f0       0x34
 .text.Console_UART_Write
                0x004029f0       0x34 build/sam_e70_xult/production/_ext/1953779166/sys_console_uart.o
                0x004029f0                Console_UART_Write

.text.SYS_CONSOLE_Message%84
                0x00402a24       0x30
 .text.SYS_CONSOLE_Message
                0x00402a24       0x30 build/sam_e70_xult/production/_ext/1953779166/sys_console.o
                0x00402a24                SYS_CONSOLE_Message

.text.Console_UART_WriteCountGet%85
                0x00402a54       0x30
 .text.Console_UART_WriteCountGet
                0x00402a54       0x30 build/sam_e70_xult/production/_ext/1953779166/sys_console_uart.o
                0x00402a54                Console_UART_WriteCountGet

.text.Console_UART_WriteFreeBufferCountGet%86
                0x00402a84       0x30
 .text.Console_UART_WriteFreeBufferCountGet
                0x00402a84       0x30 build/sam_e70_xult/production/_ext/1953779166/sys_console_uart.o
                0x00402a84                Console_UART_WriteFreeBufferCountGet

.text.Console_UART_ReadFreeBufferCountGet%87
                0x00402ab4       0x30
 .text.Console_UART_ReadFreeBufferCountGet
                0x00402ab4       0x30 build/sam_e70_xult/production/_ext/1953779166/sys_console_uart.o
                0x00402ab4                Console_UART_ReadFreeBufferCountGet

.text.Console_UART_ReadCountGet%88
                0x00402ae4       0x30
 .text.Console_UART_ReadCountGet
                0x00402ae4       0x30 build/sam_e70_xult/production/_ext/1953779166/sys_console_uart.o
                0x00402ae4                Console_UART_ReadCountGet

.text%89        0x00402b14       0x30
 .text          0x00402b14       0x30 c:/program files/microchip/xc32/v4.20/bin/bin/../../lib/gcc/pic32c/8.3.1/thumb/v7e-m+dp/hard\libgcc.a(_aeabi_uldivmod.o)
                0x00402b14                __aeabi_uldivmod

.rodata.sysConsoleUARTDevDesc%90
                0x00402b44       0x2c
 .rodata.sysConsoleUARTDevDesc
                0x00402b44       0x2c build/sam_e70_xult/production/_ext/1953779166/sys_console_uart.o
                0x00402b44                sysConsoleUARTDevDesc

.text.__pop_float%91
                0x00402b70       0x2a
 .text.__pop_float
                0x00402b70       0x2a c:/program files/microchip/xc32/v4.20/bin/bin/../../lib/gcc/pic32c/8.3.1/../../../../pic32c/lib/thumb/v7e-m+dp/hard\libc-musl.a(__pop_float.o)
                0x00402b70                __pop_float_needed
                0x00402b70                __pop_float

.text.TC0_CH0_TimerInitialize%92
                0x00402b9c       0x28
 .text.TC0_CH0_TimerInitialize
                0x00402b9c       0x28 build/sam_e70_xult/production/_ext/865331892/plib_tc0.o
                0x00402b9c                TC0_CH0_TimerInitialize

.text.__string_out%93
                0x00402bc4       0x26
 .text.__string_out
                0x00402bc4       0x26 c:/program files/microchip/xc32/v4.20/bin/bin/../../lib/gcc/pic32c/8.3.1/../../../../pic32c/lib/thumb/v7e-m+dp/hard\libc-musl.a(__printf_core.o)
                0x00402bc4                __out

.text.TC0_CH0_InterruptHandler%94
                0x00402bec       0x24
 .text.TC0_CH0_InterruptHandler
                0x00402bec       0x24 build/sam_e70_xult/production/_ext/865331892/plib_tc0.o
                0x00402bec                TC0_CH0_InterruptHandler

.text.USART1_WritePendingBytesGet%95
                0x00402c10       0x1c
 .text.USART1_WritePendingBytesGet
                0x00402c10       0x1c build/sam_e70_xult/production/_ext/707186936/plib_usart1.o

.text.USART1_ReadCountGet%96
                0x00402c2c       0x1c
 .text.USART1_ReadCountGet
                0x00402c2c       0x1c build/sam_e70_xult/production/_ext/707186936/plib_usart1.o
                0x00402c2c                USART1_ReadCountGet

.text.SYS_DEBUG_Initialize%97
                0x00402c48       0x1c
 .text.SYS_DEBUG_Initialize
                0x00402c48       0x1c build/sam_e70_xult/production/_ext/1763620194/sys_debug.o
                0x00402c48                SYS_DEBUG_Initialize

.text.vfprintf%98
                0x00402c64       0x1c
 .text.vfprintf
                0x00402c64       0x1c c:/program files/microchip/xc32/v4.20/bin/bin/../../lib/gcc/pic32c/8.3.1/../../../../pic32c/lib/thumb/v7e-m+dp/hard\libc-musl.a(vfprintf.o)
                0x00402c64                vfprintf

.rodata%99      0x00402c80       0x1c
 .rodata        0x00402c80       0x1c c:/program files/microchip/xc32/v4.20/bin/bin/../../lib/gcc/pic32c/8.3.1/../../../../pic32c/lib/thumb/v7e-m+dp/hard\libc-musl.a(__printf_core.o)

.rodata.sysConsole0UARTPlibAPI%100
                0x00402c9c       0x18
 .rodata.sysConsole0UARTPlibAPI
                0x00402c9c       0x18 build/sam_e70_xult/production/_ext/1728594169/initialization.o
                0x00402c9c                sysConsole0UARTPlibAPI

.text.UART2_WritePendingBytesGet%101
                0x00402cb4       0x14
 .text.UART2_WritePendingBytesGet
                0x00402cb4       0x14 build/sam_e70_xult/production/_ext/1639738731/plib_uart2.o

.text.UART2_ReadCountGet%102
                0x00402cc8       0x14
 .text.UART2_ReadCountGet
                0x00402cc8       0x14 build/sam_e70_xult/production/_ext/1639738731/plib_uart2.o
                0x00402cc8                UART2_ReadCountGet

.text.UART1_WritePendingBytesGet%103
                0x00402cdc       0x14
 .text.UART1_WritePendingBytesGet
                0x00402cdc       0x14 build/sam_e70_xult/production/_ext/1639738731/plib_uart1.o

.text.UART1_ReadCountGet%104
                0x00402cf0       0x14
 .text.UART1_ReadCountGet
                0x00402cf0       0x14 build/sam_e70_xult/production/_ext/1639738731/plib_uart1.o
                0x00402cf0                UART1_ReadCountGet

.text.USART1_ReadFreeBufferCountGet%105
                0x00402d04       0x14
 .text.USART1_ReadFreeBufferCountGet
                0x00402d04       0x14 build/sam_e70_xult/production/_ext/707186936/plib_usart1.o
                0x00402d04                USART1_ReadFreeBufferCountGet

.text.USART1_WriteFreeBufferCountGet%106
                0x00402d18       0x14
 .text.USART1_WriteFreeBufferCountGet
                0x00402d18       0x14 build/sam_e70_xult/production/_ext/707186936/plib_usart1.o
                0x00402d18                USART1_WriteFreeBufferCountGet

.text.Console_UART_Initialize%107
                0x00402d2c       0x14
 .text.Console_UART_Initialize
                0x00402d2c       0x14 build/sam_e70_xult/production/_ext/1953779166/sys_console_uart.o
                0x00402d2c                Console_UART_Initialize

.text.memcpy%108
                0x00402d40       0x12
 .text.memcpy   0x00402d40       0x12 c:/program files/microchip/xc32/v4.20/bin/bin/../../lib/gcc/pic32c/8.3.1/../../../../pic32c/lib/thumb/v7e-m+dp/hard\libc-musl.a(memcpy.o)
                0x00402d40                memcpy

.text.stpcpy%109
                0x00402d52       0x12
 .text.stpcpy   0x00402d52       0x12 c:/program files/microchip/xc32/v4.20/bin/bin/../../lib/gcc/pic32c/8.3.1/../../../../pic32c/lib/thumb/v7e-m+dp/hard\libc-musl.a(stpcpy.o)
                0x00402d52                __stpcpy
                0x00402d52                stpcpy

.text.BSP_Initialize%110
                0x00402d64       0x10
 .text.BSP_Initialize
                0x00402d64       0x10 build/sam_e70_xult/production/_ext/917764137/bsp.o
                0x00402d64                BSP_Initialize

.text.EFC_Initialize%111
                0x00402d74       0x10
 .text.EFC_Initialize
                0x00402d74       0x10 build/sam_e70_xult/production/_ext/1055499099/plib_efc.o
                0x00402d74                EFC_Initialize

.text.Console_UART_Status%112
                0x00402d84       0x10
 .text.Console_UART_Status
                0x00402d84       0x10 build/sam_e70_xult/production/_ext/1953779166/sys_console_uart.o
                0x00402d84                Console_UART_Status

.text.memset%113
                0x00402d94       0x10
 .text.memset   0x00402d94       0x10 c:/program files/microchip/xc32/v4.20/bin/bin/../../lib/gcc/pic32c/8.3.1/../../../../pic32c/lib/thumb/v7e-m+dp/hard\libc-musl.a(memset.o)
                0x00402d94                memset

.text.strlen%114
                0x00402da4       0x10
 .text.strlen   0x00402da4       0x10 c:/program files/microchip/xc32/v4.20/bin/bin/../../lib/gcc/pic32c/8.3.1/../../../../pic32c/lib/thumb/v7e-m+dp/hard\libc-musl.a(strlen.o)
                0x00402da4                strlen

.rodata%115     0x00402db4       0x20
 .rodata        0x00402db4       0x10 c:/program files/microchip/xc32/v4.20/bin/bin/../../lib/gcc/pic32c/8.3.1/../../../../pic32c/lib/thumb/v7e-m+dp/hard\libc-musl.a(__fmt_a.o)
 .rodata        0x00402dc4       0x10 c:/program files/microchip/xc32/v4.20/bin/bin/../../lib/gcc/pic32c/8.3.1/../../../../pic32c/lib/thumb/v7e-m+dp/hard\libc-musl.a(__fmt_fp.o)

.text.main%117  0x00402dd4        0xe
 .text.main     0x00402dd4        0xe build/sam_e70_xult/production/_ext/1360937237/main.o
                0x00402dd4                main

.text.tolower%118
                0x00402de2        0xe
 .text.tolower  0x00402de2        0xe c:/program files/microchip/xc32/v4.20/bin/bin/../../lib/gcc/pic32c/8.3.1/../../../../pic32c/lib/thumb/v7e-m+dp/hard\libc-musl.a(tolower.o)
                0x00402de2                tolower

.text.toupper%119
                0x00402df0        0xe
 .text.toupper  0x00402df0        0xe c:/program files/microchip/xc32/v4.20/bin/bin/../../lib/gcc/pic32c/8.3.1/../../../../pic32c/lib/thumb/v7e-m+dp/hard\libc-musl.a(toupper.o)
                0x00402df0                toupper

.text.UART2_WriteFreeBufferCountGet%120
                0x00402dfe        0xc
 .text.UART2_WriteFreeBufferCountGet
                0x00402dfe        0xc build/sam_e70_xult/production/_ext/1639738731/plib_uart2.o
                0x00402dfe                UART2_WriteFreeBufferCountGet

.text.UART1_WriteFreeBufferCountGet%121
                0x00402e0a        0xc
 .text.UART1_WriteFreeBufferCountGet
                0x00402e0a        0xc build/sam_e70_xult/production/_ext/1639738731/plib_uart1.o
                0x00402e0a                UART1_WriteFreeBufferCountGet

.text.SYS_DEBUG_ConsoleInstanceGet%122
                0x00402e18        0xc
 .text.SYS_DEBUG_ConsoleInstanceGet
                0x00402e18        0xc build/sam_e70_xult/production/_ext/1763620194/sys_debug.o
                0x00402e18                SYS_DEBUG_ConsoleInstanceGet

.text.SYS_DEBUG_ErrorLevelSet%123
                0x00402e24        0xc
 .text.SYS_DEBUG_ErrorLevelSet
                0x00402e24        0xc build/sam_e70_xult/production/_ext/1763620194/sys_debug.o
                0x00402e24                SYS_DEBUG_ErrorLevelSet

.text.SYS_DEBUG_ErrorLevelGet%124
                0x00402e30        0xc
 .text.SYS_DEBUG_ErrorLevelGet
                0x00402e30        0xc build/sam_e70_xult/production/_ext/1763620194/sys_debug.o
                0x00402e30                SYS_DEBUG_ErrorLevelGet

.rodata.sysConsole0Init%125
                0x00402e3c        0xc
 .rodata.sysConsole0Init
                0x00402e3c        0xc build/sam_e70_xult/production/_ext/1728594169/initialization.o
                0x00402e3c                sysConsole0Init

.text.APP_Initialize%126
                0x00402e48        0xc
 .text.APP_Initialize
                0x00402e48        0xc build/sam_e70_xult/production/_ext/1360937237/app.o
                0x00402e48                APP_Initialize

.text.strcpy%127
                0x00402e54        0xc
 .text.strcpy   0x00402e54        0xc c:/program files/microchip/xc32/v4.20/bin/bin/../../lib/gcc/pic32c/8.3.1/../../../../pic32c/lib/thumb/v7e-m+dp/hard\libc-musl.a(strcpy.o)
                0x00402e54                strcpy

.text.SYS_CONSOLE_HandleGet%128
                0x00402e60        0xa
 .text.SYS_CONSOLE_HandleGet
                0x00402e60        0xa build/sam_e70_xult/production/_ext/1953779166/sys_console.o
                0x00402e60                SYS_CONSOLE_HandleGet

.text.USART1_WriteCountGet%129
                0x00402e6a        0x8
 .text.USART1_WriteCountGet
                0x00402e6a        0x8 build/sam_e70_xult/production/_ext/707186936/plib_usart1.o
                0x00402e6a                USART1_WriteCountGet

.text.SYS_Tasks%130
                0x00402e72        0x8
 .text.SYS_Tasks
                0x00402e72        0x8 build/sam_e70_xult/production/_ext/1728594169/tasks.o
                0x00402e72                SYS_Tasks

.rodata%131     0x00402e7a        0x7
 .rodata        0x00402e7a        0x7 c:/program files/microchip/xc32/v4.20/bin/bin/../../lib/gcc/pic32c/8.3.1/../../../../pic32c/lib/thumb/v7e-m+dp/hard\libc-musl.a(__fmt_s.o)

.rodata.debugInit%132
                0x00402e84        0x4
 .rodata.debugInit
                0x00402e84        0x4 build/sam_e70_xult/production/_ext/1728594169/initialization.o
                0x00402e84                debugInit

.rodata.sysConsole0UARTInitData%133
                0x00402e88        0x4
 .rodata.sysConsole0UARTInitData
                0x00402e88        0x4 build/sam_e70_xult/production/_ext/1728594169/initialization.o
                0x00402e88                sysConsole0UARTInitData

.text.Console_UART_Flush%134
                0x00402e8c        0x4
 .text.Console_UART_Flush
                0x00402e8c        0x4 build/sam_e70_xult/production/_ext/1953779166/sys_console_uart.o
                0x00402e8c                Console_UART_Flush

.text.__pic32c_data_initialization%135
                0x00402e90        0x4
 .text.__pic32c_data_initialization
                0x00402e90        0x4 c:/program files/microchip/xc32/v4.20/bin/bin/../../lib/gcc/pic32c/8.3.1/../../../../pic32c/lib/thumb/v7e-m+dp/hard\libpic32c.a(data_init_wrapper.o)
                0x00402e90                __pic32c_data_initialization

.text%136       0x00402e94        0x4
 .text          0x00402e94        0x4 c:/program files/microchip/xc32/v4.20/bin/bin/../../lib/gcc/pic32c/8.3.1/thumb/v7e-m+dp/hard\libgcc.a(_dvmd_tls.o)
                0x00402e94                __aeabi_idiv0
                0x00402e94                __aeabi_ldiv0

.text.Dummy_Handler%137
                0x00401a42        0x2
 .text.Dummy_Handler
                0x00401a42        0x2 build/sam_e70_xult/production/_ext/1728594169/interrupts.o
                0x00401a42                DACC_Handler
                0x00401a42                SVCall_Handler
                0x00401a42                TC0_CH2_Handler
                0x00401a42                TC3_CH1_Handler
                0x00401a42                UART3_Handler
                0x00401a42                TRNG_Handler
                0x00401a42                SysTick_Handler
                0x00401a42                AFEC1_Handler
                0x00401a42                PendSV_Handler
                0x00401a42                TC0_CH1_Handler
                0x00401a42                QSPI_Handler
                0x00401a42                ISI_Handler
                0x00401a42                RSWDT_Handler
                0x00401a42                USART0_Handler
                0x00401a42                TC1_CH2_Handler
                0x00401a42                RTT_Handler
                0x00401a42                USBHS_Handler
                0x00401a42                IXC_Handler
                0x00401a42                CCF_Handler
                0x00401a42                PIOB_Handler
                0x00401a42                RTC_Handler
                0x00401a42                WDT_Handler
                0x00401a42                MCAN1_INT1_Handler
                0x00401a42                HSMCI_Handler
                0x00401a42                Dummy_Handler
                0x00401a42                TWIHS1_Handler
                0x00401a42                TC3_CH2_Handler
                0x00401a42                XDMAC_Handler
                0x00401a42                UART4_Handler
                0x00401a42                TC2_CH0_Handler
                0x00401a42                PWM1_Handler
                0x00401a42                PWM0_Handler
                0x00401a42                PIOA_Handler
                0x00401a42                AFEC0_Handler
                0x00401a42                CCW_Handler
                0x00401a42                TC3_CH0_Handler
                0x00401a42                SSC_Handler
                0x00401a42                TC1_CH0_Handler
                0x00401a42                ACC_Handler
                0x00401a42                PMC_Handler
                0x00401a42                GMAC_Handler
                0x00401a42                TC2_CH2_Handler
                0x00401a42                MCAN0_INT1_Handler
                0x00401a42                GMAC_Q5_Handler
                0x00401a42                SUPC_Handler
                0x00401a42                TC2_CH1_Handler
                0x00401a42                MCAN1_INT0_Handler
                0x00401a42                EFC_Handler
                0x00401a42                GMAC_Q1_Handler
                0x00401a42                USART2_Handler
                0x00401a42                GMAC_Q2_Handler
                0x00401a42                PIOE_Handler
                0x00401a42                SPI1_Handler
                0x00401a42                TC1_CH1_Handler
                0x00401a42                GMAC_Q3_Handler
                0x00401a42                PIOD_Handler
                0x00401a42                TWIHS2_Handler
                0x00401a42                I2SC0_Handler
                0x00401a42                UART0_Handler
                0x00401a42                I2SC1_Handler
                0x00401a42                PIOC_Handler
                0x00401a42                GMAC_Q4_Handler
                0x00401a42                FPU_Handler
                0x00401a42                RSTC_Handler
                0x00401a42                ICM_Handler
                0x00401a42                AES_Handler
                0x00401a42                TWIHS0_Handler
                0x00401a42                SPI0_Handler

.text.NonMaskableInt_Handler%138
                0x0040223a        0x2
 .text.NonMaskableInt_Handler
                0x0040223a        0x2 build/sam_e70_xult/production/_ext/1728594169/exceptions.o
                0x0040223a                NonMaskableInt_Handler

.text.HardFault_Handler%139
                0x0040260a        0x2
 .text.HardFault_Handler
                0x0040260a        0x2 build/sam_e70_xult/production/_ext/1728594169/exceptions.o
                0x0040260a                HardFault_Handler

.text.DebugMonitor_Handler%140
                0x0040273e        0x2
 .text.DebugMonitor_Handler
                0x0040273e        0x2 build/sam_e70_xult/production/_ext/1728594169/exceptions.o
                0x0040273e                DebugMonitor_Handler

.text.MemoryManagement_Handler%141
                0x00402b9a        0x2
 .text.MemoryManagement_Handler
                0x00402b9a        0x2 build/sam_e70_xult/production/_ext/1728594169/exceptions.o
                0x00402b9a                MemoryManagement_Handler

.text.BusFault_Handler%142
                0x00402bea        0x2
 .text.BusFault_Handler
                0x00402bea        0x2 build/sam_e70_xult/production/_ext/1728594169/exceptions.o
                0x00402bea                BusFault_Handler

.text.UsageFault_Handler%143
                0x00402e16        0x2
 .text.UsageFault_Handler
                0x00402e16        0x2 build/sam_e70_xult/production/_ext/1728594169/exceptions.o
                0x00402e16                UsageFault_Handler

.text.Dummy_App_Func%144
                0x00402e82        0x2
 .text.Dummy_App_Func
                0x00402e82        0x2 build/sam_e70_xult/production/_ext/1728594169/startup_xc32.o
                0x00402e82                _on_reset
                0x00402e82                _on_bootstrap
                0x00402e82                __xc32_on_reset
                0x00402e82                Dummy_App_Func
                0x00402e82                __xc32_on_bootstrap

.text.Console_UART_Tasks%145
                0x00402e98        0x2
 .text.Console_UART_Tasks
                0x00402e98        0x2 build/sam_e70_xult/production/_ext/1953779166/sys_console_uart.o
                0x00402e98                Console_UART_Tasks

.text.__dummy%146
                0x00402e9a        0x2
 .text.__dummy  0x00402e9a        0x2 c:/program files/microchip/xc32/v4.20/bin/bin/../../lib/gcc/pic32c/8.3.1/../../../../pic32c/lib/thumb/v7e-m+dp/hard\libc-musl.a(__libc_start_main.o)
                0x00402e9a                __init_stdio
                0x00402e9a                __init_host
